081109 204106 329 INFO dfs.DataNode$PacketResponder: PacketResponder 2 for block blk_-6670958622368987959 terminating
081109 204815 653 INFO dfs.DataNode$DataXceiver: Receiving block blk_5792489080791696128 src: /10.251.30.6:33145 dest: /10.251.30.6:50010
081109 205315 29 INFO dfs.FSNamesystem: BLOCK* NameSystem.allocateBlock: /user/root/rand/_temporary/_task_200811092030_0001_m_000742_0/part-00742. blk_-7878121102358435702
081109 205749 997 INFO dfs.DataNode$DataXceiver: Receiving block blk_-28342503914935090 src: /10.251.123.132:57542 dest: /10.251.123.132:50010
081109 210407 33 INFO dfs.FSNamesystem: BLOCK* NameSystem.addStoredBlock: blockMap updated: 10.250.7.244:50010 is added to blk_5165786360127153975 size 67108864
081109 210801 1357 INFO dfs.DataNode$DataXceiver: Receiving block blk_-6276023454199613372 src: /10.251.65.237:34085 dest: /10.251.65.237:50010
081109 211216 1504 INFO dfs.DataNode$PacketResponder: Received block blk_-8241093737585222406 of size 67108864 from /10.250.5.161
081109 211918 1777 INFO dfs.DataNode$PacketResponder: PacketResponder 1 for block blk_4886940526690879848 terminating
081109 212403 35 INFO dfs.FSNamesystem: BLOCK* NameSystem.addStoredBlock: blockMap updated: 10.251.106.50:50010 is added to blk_-2530087534157630851 size 67108864
081109 213217 2267 INFO dfs.DataNode$PacketResponder: PacketResponder 0 for block blk_-5852844080027817147 terminating
081109 213907 2497 INFO dfs.DataNode$DataXceiver: 10.251.91.229:50010 Served block blk_-3358448553918665902 to /10.251.91.229
081109 214910 2848 WARN dfs.DataNode$DataXceiver: 10.250.13.188:50010:Got exception while serving blk_6241141267506413726 to /10.251.194.245:
081109 220403 3148 WARN dfs.DataNode$DataXceiver: 10.251.107.227:50010:Got exception while serving blk_-6290631608800952376 to /10.251.109.209:
081109 222650 3459 WARN dfs.DataNode$DataXceiver: 10.251.214.112:50010:Got exception while serving blk_5905933788014151041 to /10.251.214.112:
081109 230110 3647 WARN dfs.DataNode$DataXceiver: 10.251.90.134:50010:Got exception while serving blk_7154985168984871115 to /10.251.110.160:
081109 232833 32 INFO dfs.FSNamesystem: BLOCK* NameSystem.addStoredBlock: blockMap updated: 10.251.75.79:50010 is added to blk_467589865104023338 size 67108864
081109 233836 4061 INFO dfs.DataNode$DataXceiver: Receiving block blk_-8788032532930439012 src: /10.251.126.255:41104 dest: /10.251.126.255:50010
081109 234325 4246 INFO dfs.DataNode$PacketResponder: PacketResponder 1 for block blk_-8108913101671416218 terminating
081109 234719 4344 INFO dfs.DataNode$PacketResponder: PacketResponder 2 for block blk_-6766351519628312408 terminating
081109 235140 31 INFO dfs.FSNamesystem: BLOCK* NameSystem.allocateBlock: /user/root/sortrand/_temporary/_task_200811092030_0002_r_000230_0/part-00230. blk_559204981722276126
081109 235727 4429 INFO dfs.DataNode$DataXceiver: Receiving block blk_-5217146995455608468 src: /10.251.214.67:38871 dest: /10.251.214.67:50010
081110 000136 28 INFO dfs.FSNamesystem: BLOCK* NameSystem.addStoredBlock: blockMap updated: 10.250.6.4:50010 is added to blk_5114010683183383297 size 67108864
081110 000616 4552 INFO dfs.DataNode$PacketResponder: Received block blk_3463540868626173125 of size 67108864 from /10.251.30.134
081110 001307 29 INFO dfs.FSNamesystem: BLOCK* NameSystem.addStoredBlock: blockMap updated: 10.251.90.239:50010 is added to blk_-9069971851590882719 size 67108864
081110 002221 4855 INFO dfs.DataNode$PacketResponder: PacketResponder 0 for block blk_3259872359515191972 terminating
081110 004247 33 INFO dfs.FSNamesystem: BLOCK* NameSystem.addStoredBlock: blockMap updated: 10.251.39.242:50010 is added to blk_-4110733372292809607 size 67108864
081110 010759 34 INFO dfs.FSNamesystem: BLOCK* NameSystem.allocateBlock: /user/root/randtxt/_temporary/_task_200811092030_0003_m_000392_0/part-00392. blk_-3010126661650043258
081110 011001 26 INFO dfs.FSNamesystem: BLOCK* NameSystem.addStoredBlock: blockMap updated: 10.251.25.237:50010 is added to blk_541463031152673662 size 67108864
081110 011431 33 INFO dfs.FSNamesystem: BLOCK* NameSystem.allocateBlock: /user/root/randtxt/_temporary/_task_200811092030_0003_m_000675_0/part-00675. blk_-7866582011201618766
081110 011846 5274 INFO dfs.DataNode$PacketResponder: Received block blk_-2013946318750925538 of size 67108864 from /10.251.126.22
081110 012522 5491 INFO dfs.DataNode$PacketResponder: PacketResponder 1 for block blk_-5569558931000121451 terminating
081110 013231 5659 INFO dfs.DataNode$DataXceiver: Receiving block blk_-8227485321105019293 src: /10.251.195.33:56999 dest: /10.251.195.33:50010
081110 013542 5646 INFO dfs.DataNode$PacketResponder: PacketResponder 0 for block blk_755689327380778318 terminating
081110 014002 5798 INFO dfs.DataNode$DataXceiver: Receiving block blk_7229716389774599497 src: /10.251.201.204:38310 dest: /10.251.201.204:50010
081110 014207 27 INFO dfs.FSNamesystem: BLOCK* NameSystem.allocateBlock: /user/root/randtxt/_temporary/_task_200811092030_0003_m_001365_0/part-01365. blk_4841101867353115844
081110 014519 32 INFO dfs.FSNamesystem: BLOCK* NameSystem.allocateBlock: /user/root/randtxt/_temporary/_task_200811092030_0003_m_001506_0/part-01506. blk_1104376461837247304
081110 014914 30 INFO dfs.FSNamesystem: BLOCK* NameSystem.allocateBlock: /user/root/randtxt/_temporary/_task_200811092030_0003_m_001728_0/part-01728. blk_-488298625688742454
081110 015340 32 INFO dfs.FSNamesystem: BLOCK* NameSystem.allocateBlock: /user/root/randtxt/_temporary/_task_200811092030_0003_m_001661_0/part-01661. blk_-1674094254141559552
081110 015716 6066 INFO dfs.DataNode$PacketResponder: Received block blk_5250287988089075029 of size 67108864 from /10.251.66.63
081110 015959 32 INFO dfs.FSNamesystem: BLOCK* NameSystem.addStoredBlock: blockMap updated: 10.251.110.160:50010 is added to blk_-8077373411465716253 size 67108864
081110 020313 6034 INFO dfs.DataNode$PacketResponder: Received block blk_-5306443381473737599 of size 67108864 from /10.251.195.52
081110 020724 29 INFO dfs.FSNamesystem: BLOCK* NameSystem.delete: blk_2568309208894455676 is added to invalidSet of 10.251.31.160:50010
081110 032126 6555 WARN dfs.DataNode$DataXceiver: 10.251.26.8:50010:Got exception while serving blk_-7983508786213002472 to /10.251.38.197:
081110 054642 7145 INFO dfs.DataNode$DataXceiver: 10.251.215.16:50010 Served block blk_-5919767990596301121 to /10.251.215.16
081110 070614 7513 INFO dfs.DataNode$DataXceiver: 10.250.19.16:50010 Served block blk_-7837339190764609698 to /10.251.197.161
081110 080546 7970 WARN dfs.DataNode$DataXceiver: 10.251.111.130:50010:Got exception while serving blk_3169060243663461885 to /10.251.214.32:
081110 080949 7994 INFO dfs.DataNode$DataXceiver: 10.250.19.227:50010 Served block blk_3979872751691718643 to /10.250.19.227
081110 081741 8169 WARN dfs.DataNode$DataXceiver: 10.251.215.70:50010:Got exception while serving blk_-20269367189114433 to /10.251.30.179:
081110 082954 8543 WARN dfs.DataNode$DataXceiver: 10.251.70.112:50010:Got exception while serving blk_4357276972386184626 to /10.251.74.79:
081110 085933 13 INFO dfs.DataBlockScanner: Verification succeeded for blk_-4117999745005013424
081110 092459 8650 INFO dfs.DataNode$DataXceiver: 10.250.9.207:50010 Served block blk_4355450627202483068 to /10.250.9.207
081110 103026 34 INFO dfs.FSNamesystem: BLOCK* NameSystem.delete: blk_-1233005817943453613 is added to invalidSet of 10.251.75.49:50010
081110 103029 34 INFO dfs.FSNamesystem: BLOCK* NameSystem.delete: blk_434034567989619521 is added to invalidSet of 10.251.91.15:50010
081110 103037 34 INFO dfs.FSNamesystem: BLOCK* NameSystem.delete: blk_-1331750856499198500 is added to invalidSet of 10.251.38.53:50010
081110 103046 34 INFO dfs.FSNamesystem: BLOCK* NameSystem.delete: blk_-5368528328022648701 is added to invalidSet of 10.251.202.181:50010
081110 103055 30 INFO dfs.FSNamesystem: BLOCK* NameSystem.delete: blk_6324712740029479576 is added to invalidSet of 10.251.30.6:50010
081110 103111 30 INFO dfs.FSNamesystem: BLOCK* NameSystem.delete: blk_-6255015379143356507 is added to invalidSet of 10.251.111.37:50010
081110 103114 30 INFO dfs.FSNamesystem: BLOCK* NameSystem.delete: blk_358331073189608564 is added to invalidSet of 10.251.67.225:50010
081110 103132 30 INFO dfs.FSNamesystem: BLOCK* NameSystem.delete: blk_-7418499425236853516 is added to invalidSet of 10.251.203.4:50010
081110 103146 30 INFO dfs.FSNamesystem: BLOCK* NameSystem.delete: blk_-1110880362999960078 is added to invalidSet of 10.251.194.147:50010
081110 103149 30 INFO dfs.FSNamesystem: BLOCK* NameSystem.delete: blk_8871064397020855320 is added to invalidSet of 10.251.42.84:50010
081110 103328 19 INFO dfs.FSDataset: Deleting block blk_8303413189200230139 file /mnt/hadoop/dfs/data/current/subdir32/blk_8303413189200230139
081110 103348 19 INFO dfs.FSDataset: Deleting block blk_-8484827087450439270 file /mnt/hadoop/dfs/data/current/subdir25/blk_-8484827087450439270
081110 103432 19 INFO dfs.FSDataset: Deleting block blk_-4223625526513535681 file /mnt/hadoop/dfs/data/current/subdir60/blk_-4223625526513535681
081110 103527 19 INFO dfs.FSDataset: Deleting block blk_-2425070029518924403 file /mnt/hadoop/dfs/data/current/subdir39/blk_-2425070029518924403
081110 103551 19 INFO dfs.FSDataset: Deleting block blk_8291708741145026623 file /mnt/hadoop/dfs/data/current/subdir57/blk_8291708741145026623
081110 103600 19 INFO dfs.FSDataset: Deleting block blk_-6127741703501838658 file /mnt/hadoop/dfs/data/current/subdir53/blk_-6127741703501838658
081110 103626 18 INFO dfs.FSDataset: Deleting block blk_-1599621098605751235 file /mnt/hadoop/dfs/data/current/subdir16/blk_-1599621098605751235
081110 103659 19 INFO dfs.FSDataset: Deleting block blk_2731617036199392057 file /mnt/hadoop/dfs/data/current/subdir39/blk_2731617036199392057
081110 103735 19 INFO dfs.FSDataset: Deleting block blk_7519257846502835091 file /mnt/hadoop/dfs/data/current/subdir15/blk_7519257846502835091
081110 103818 35 INFO dfs.FSNamesystem: BLOCK* NameSystem.addStoredBlock: blockMap updated: 10.251.194.147:50010 is added to blk_5277338321835341602 size 67108864
081110 103922 19 INFO dfs.FSDataset: Deleting block blk_7754477838724397551 file /mnt/hadoop/dfs/data/current/subdir46/blk_7754477838724397551
081110 104357 9263 INFO dfs.DataNode$PacketResponder: PacketResponder 2 for block blk_-6035642070260562886 terminating
081110 104839 9163 INFO dfs.DataNode$PacketResponder: Received block blk_-5236578579938215340 of size 67108864 from /10.250.7.244
081110 105252 9416 INFO dfs.DataNode$DataXceiver: Receiving block blk_-8563999607069929505 src: /10.251.107.19:60076 dest: /10.251.107.19:50010
081110 105628 19 INFO dfs.FSDataset: Deleting block blk_5075966182561035053 file /mnt/hadoop/dfs/data/current/subdir53/blk_5075966182561035053
081110 110101 29 INFO dfs.FSNamesystem: BLOCK* NameSystem.addStoredBlock: blockMap updated: 10.251.38.214:50010 is added to blk_-5363213609331400263 size 67108864
081110 110921 35 INFO dfs.FSNamesystem: BLOCK* NameSystem.allocateBlock: /user/root/rand/_temporary/_task_200811101024_0001_m_001197_0/part-01197. blk_-5255262711039499896
081110 111248 9723 INFO dfs.DataNode$PacketResponder: PacketResponder 2 for block blk_8348114876238571434 terminating
081110 111638 10033 INFO dfs.DataNode$DataXceiver: Receiving block blk_1394107495884949139 src: /10.250.10.100:33314 dest: /10.250.10.100:50010
081110 111909 31 INFO dfs.FSNamesystem: BLOCK* NameSystem.addStoredBlock: blockMap updated: 10.251.123.99:50010 is added to blk_-2600305892036631113 size 67108864
081110 112324 9997 INFO dfs.DataNode$PacketResponder: PacketResponder 0 for block blk_-1387034299358896632 terminating
081110 112716 9992 INFO dfs.DataNode$DataXceiver: Receiving block blk_7535677865140289610 src: /10.251.26.131:47660 dest: /10.251.26.131:50010
081110 113919 10209 INFO dfs.DataNode$PacketResponder: Received block blk_2157471834570224881 of size 67108864 from /10.251.126.22
081110 114144 10436 INFO dfs.DataNode$PacketResponder: Received block blk_-1849105860762445186 of size 67108864 from /10.251.91.229
081110 114357 10454 INFO dfs.DataNode$DataXceiver: Receiving block blk_-7486746679002157277 src: /10.251.42.207:57669 dest: /10.251.42.207:50010
081110 114738 10395 INFO dfs.DataNode$DataXceiver: Receiving block blk_2980964138205299397 src: /10.251.110.196:53450 dest: /10.251.110.196:50010
081110 115614 28 INFO dfs.FSNamesystem: BLOCK* NameSystem.addStoredBlock: blockMap updated: 10.251.65.203:50010 is added to blk_-3949633496933134307 size 67108864
081110 120103 10778 INFO dfs.DataNode$PacketResponder: PacketResponder 2 for block blk_-5321676321043683563 terminating
081110 120429 29 INFO dfs.FSNamesystem: BLOCK* NameSystem.addStoredBlock: blockMap updated: 10.251.197.226:50010 is added to blk_4307207852226914003 size 67108864
081110 120931 10872 INFO dfs.DataNode$DataXceiver: Receiving block blk_6868050965297613251 src: /10.251.201.204:47734 dest: /10.251.201.204:50010
081110 121402 10935 INFO dfs.DataNode$PacketResponder: PacketResponder 1 for block blk_-3339018122410311668 terminating
081110 122121 10760 INFO dfs.DataNode$DataXceiver: Receiving block blk_-3673133694834392576 src: /10.251.109.209:49088 dest: /10.251.109.209:50010
081110 122607 11193 INFO dfs.DataNode$PacketResponder: Received block blk_2599050023684318911 of size 67108864 from /10.251.106.10
081110 123008 11210 INFO dfs.DataNode$PacketResponder: PacketResponder 1 for block blk_-1490623381339215624 terminating
081110 123252 11243 INFO dfs.DataNode$PacketResponder: Received block blk_-9089815063425241739 of size 67108864 from /10.251.126.255
081110 123726 30 INFO dfs.FSNamesystem: BLOCK* NameSystem.allocateBlock: /user/root/randtxt2/_temporary/_task_200811101024_0002_m_001968_1/part-01968. blk_5106303344783117537
081110 125914 11536 WARN dfs.DataNode$DataXceiver: 10.250.13.188:50010:Got exception while serving blk_73389299186801686 to /10.251.123.33:
081110 131806 11757 WARN dfs.DataNode$DataXceiver: 10.251.26.177:50010:Got exception while serving blk_3848747149919646864 to /10.251.125.174:
081110 135429 12030 WARN dfs.DataNode$DataXceiver: 10.251.70.37:50010:Got exception while serving blk_1646534811870220828 to /10.250.11.100:
081110 143232 12469 INFO dfs.DataNode$PacketResponder: PacketResponder 2 for block blk_3584162266158512993 terminating
081110 143613 12543 INFO dfs.DataNode$DataXceiver: Receiving block blk_-3486808304671603275 src: /10.251.30.85:37518 dest: /10.251.30.85:50010
081110 144024 32 INFO dfs.FSNamesystem: BLOCK* NameSystem.addStoredBlock: blockMap updated: 10.251.195.70:50010 is added to blk_4318179566727871532 size 67108864
081110 144509 12519 INFO dfs.DataNode$DataXceiver: Receiving block blk_-3157541550945505354 src: /10.251.125.193:45917 dest: /10.251.125.193:50010
081110 144947 12810 INFO dfs.DataNode$DataXceiver: Receiving block blk_-5003122231679852524 src: /10.250.7.230:51033 dest: /10.250.7.230:50010
081110 145452 12780 INFO dfs.DataNode$PacketResponder: Received block blk_560063894682806537 of size 67108864 from /10.251.194.129
081110 145818 12949 INFO dfs.DataNode$PacketResponder: PacketResponder 1 for block blk_2570966823909513791 terminating
081110 150240 12700 INFO dfs.DataNode$DataXceiver: Receiving block blk_-4673509946769671609 src: /10.251.30.85:34022 dest: /10.251.30.85:50010
081110 150618 30 INFO dfs.FSNamesystem: BLOCK* NameSystem.addStoredBlock: blockMap updated: 10.251.73.188:50010 is added to blk_-3897674589140998025 size 67108864
081110 151307 35 INFO dfs.FSNamesystem: BLOCK* NameSystem.allocateBlock: /user/root/sortrand2/_temporary/_task_200811101024_0003_r_000152_0/part-00152. blk_-7603795308074215276
081110 151940 12996 INFO dfs.DataNode$DataXceiver: Receiving block blk_4742178675580222210 src: /10.251.42.9:60232 dest: /10.251.42.9:50010
081110 153917 13338 INFO dfs.DataNode$PacketResponder: Received block blk_-7716943410942322104 of size 67108864 from /10.251.126.5
081110 173556 13687 INFO dfs.DataNode$DataXceiver: 10.251.194.147:50010 Served block blk_7703498406755483188 to /10.251.111.209
081110 183200 13 INFO dfs.DataBlockScanner: Verification succeeded for blk_1584196996810164915
081110 194544 14270 INFO dfs.DataNode$DataXceiver: 10.251.202.209:50010 Served block blk_-1442905060580014339 to /10.251.202.209
081110 210115 28 INFO dfs.FSNamesystem: BLOCK* NameSystem.delete: blk_-7584542530081657301 is added to invalidSet of 10.250.10.223:50010
081110 210126 28 INFO dfs.FSNamesystem: BLOCK* NameSystem.delete: blk_-3754029959138975487 is added to invalidSet of 10.251.214.112:50010
081110 210131 28 INFO dfs.FSNamesystem: BLOCK* NameSystem.delete: blk_7606019272539977822 is added to invalidSet of 10.251.67.211:50010
081110 210147 28 INFO dfs.FSNamesystem: BLOCK* NameSystem.delete: blk_753559000954836892 is added to invalidSet of 10.251.30.101:50010
081110 210153 28 INFO dfs.FSNamesystem: BLOCK* NameSystem.delete: blk_1102735311308675356 is added to invalidSet of 10.251.71.97:50010
081110 210252 18 INFO dfs.FSDataset: Deleting block blk_-8949548167466276130 file /mnt/hadoop/dfs/data/current/subdir2/blk_-8949548167466276130
081110 210354 19 INFO dfs.FSDataset: Deleting block blk_-6901909114834172466 file /mnt/hadoop/dfs/data/current/subdir57/blk_-6901909114834172466
081110 210422 11315 INFO dfs.DataNode$PacketResponder: Received block blk_-3734839878416656496 of size 67108864 from /10.251.66.102
081110 210502 19 INFO dfs.FSDataset: Deleting block blk_-3564493590065542578 file /mnt/hadoop/dfs/data/current/subdir55/blk_-3564493590065542578
081110 210517 19 INFO dfs.FSDataset: Deleting block blk_-3396836569886642130 file /mnt/hadoop/dfs/data/current/subdir32/blk_-3396836569886642130
081110 210545 19 INFO dfs.FSDataset: Deleting block blk_2156262111024914941 file /mnt/hadoop/dfs/data/current/subdir14/blk_2156262111024914941
081110 210558 19 INFO dfs.FSDataset: Deleting block blk_8693774866554287286 file /mnt/hadoop/dfs/data/current/subdir55/blk_8693774866554287286
081110 210710 19 INFO dfs.FSDataset: Deleting block blk_6445339027653789144 file /mnt/hadoop/dfs/data/current/subdir16/blk_6445339027653789144
081110 211030 19 INFO dfs.FSDataset: Deleting block blk_7360639743953947587 file /mnt/hadoop/dfs/data/current/subdir35/blk_7360639743953947587
081110 211358 14754 INFO dfs.DataNode$DataXceiver: Receiving block blk_4149909442914612270 src: /10.251.195.33:55490 dest: /10.251.195.33:50010
081110 211926 26 INFO dfs.FSNamesystem: BLOCK* NameSystem.addStoredBlock: blockMap updated: 10.251.70.211:50010 is added to blk_-5471660287004025096 size 67108864
081110 212249 14727 INFO dfs.DataNode$PacketResponder: Received block blk_6730979070070986233 of size 67108864 from /10.251.90.239
081110 212556 27 INFO dfs.FSNamesystem: BLOCK* NameSystem.addStoredBlock: blockMap updated: 10.251.91.84:50010 is added to blk_6039898256291822367 size 67108864
081110 213221 15038 INFO dfs.DataNode$PacketResponder: PacketResponder 0 for block blk_429279891070363457 terminating
081110 213723 27 INFO dfs.FSNamesystem: BLOCK* NameSystem.addStoredBlock: blockMap updated: 10.251.214.112:50010 is added to blk_8063831442998721547 size 67108864
081110 214101 15116 INFO dfs.DataNode$PacketResponder: PacketResponder 0 for block blk_-703436021914343546 terminating
081110 214823 15099 INFO dfs.DataNode$DataXceiver: Receiving block blk_8574493302165689212 src: /10.251.194.245:34656 dest: /10.251.194.245:50010
081110 215310 15040 INFO dfs.DataNode$PacketResponder: Received block blk_-3300851862683571086 of size 67108864 from /10.251.203.166
081110 215726 15711 INFO dfs.DataNode$PacketResponder: PacketResponder 2 for block blk_1639683981444528748 terminating
081110 220148 15613 INFO dfs.DataNode$PacketResponder: Received block blk_-2151458111813215098 of size 67108864 from /10.250.9.207
081110 220636 32 INFO dfs.FSNamesystem: BLOCK* NameSystem.delete: blk_3332848207645320273 is added to invalidSet of 10.251.90.64:50010
081110 220650 32 INFO dfs.FSNamesystem: BLOCK* NameSystem.delete: blk_6392434729242722288 is added to invalidSet of 10.251.30.134:50010
081110 220655 32 INFO dfs.FSNamesystem: BLOCK* NameSystem.delete: blk_-7369651436133452001 is added to invalidSet of 10.251.127.191:50010
081110 220804 19 INFO dfs.FSDataset: Deleting block blk_-8294986551316947211 file /mnt/hadoop/dfs/data/current/subdir34/blk_-8294986551316947211
081110 220916 15860 INFO dfs.DataNode$DataXceiver: Receiving block blk_-4473277914543734578 src: /10.251.215.16:34762 dest: /10.251.215.16:50010
081110 221038 16067 INFO dfs.DataNode$DataXceiver: Receiving block blk_323887415551221572 src: /10.251.39.144:46278 dest: /10.251.39.144:50010
081110 221653 15684 INFO dfs.DataNode$PacketResponder: Received block blk_-5777981614298940026 of size 67108864 from /10.251.214.67
081110 222221 15824 INFO dfs.DataNode$PacketResponder: PacketResponder 1 for block blk_8971893898579544235 terminating
081110 222529 15925 INFO dfs.DataNode$PacketResponder: PacketResponder 0 for block blk_-5610308397633191834 terminating
081110 223002 15950 INFO dfs.DataNode$DataXceiver: Receiving block blk_1463530401988623658 src: /10.251.111.37:41293 dest: /10.251.111.37:50010
081110 223615 33 INFO dfs.FSNamesystem: BLOCK* NameSystem.addStoredBlock: blockMap updated: 10.251.127.243:50010 is added to blk_-5882295985950637419 size 67108864
081110 224059 16244 INFO dfs.DataNode$PacketResponder: PacketResponder 2 for block blk_5262186175243998904 terminating
081110 224504 31 INFO dfs.FSNamesystem: BLOCK* NameSystem.addStoredBlock: blockMap updated: 10.250.7.32:50010 is added to blk_3849239820458663566 size 67108864
081110 224755 26 INFO dfs.FSNamesystem: BLOCK* NameSystem.allocateBlock: /user/root/randtxt3/_temporary/_task_200811101024_0007_m_001560_0/part-01560. blk_3376391218693716925
081110 225213 16632 INFO dfs.DataNode$PacketResponder: Received block blk_-5644397018622018109 of size 67108864 from /10.251.109.236
081110 225813 16867 INFO dfs.DataNode$DataXceiver: Receiving block blk_-5029807829679779067 src: /10.251.122.79:49600 dest: /10.251.122.79:50010
081110 230338 34 INFO dfs.FSNamesystem: BLOCK* NameSystem.addStoredBlock: blockMap updated: 10.251.194.213:50010 is added to blk_-3575568207121859434 size 67108864
081110 230628 16721 INFO dfs.DataNode$PacketResponder: PacketResponder 0 for block blk_-1250775350296476256 terminating
081110 231911 16933 WARN dfs.DataNode$DataXceiver: 10.251.126.227:50010:Got exception while serving blk_-4181768899028058192 to /10.251.26.177:
081111 000932 16928 INFO dfs.DataNode$DataXceiver: 10.251.90.64:50010 Served block blk_-657087263710195616 to /10.250.14.196
081111 013322 17524 INFO dfs.DataNode$DataXceiver: 10.251.121.224:50010 Served block blk_342378162324355732 to /10.251.121.224
081111 023011 27 INFO dfs.FSNamesystem: BLOCK* NameSystem.delete: blk_-5513640508500780385 is added to invalidSet of 10.251.203.179:50010
081111 023017 27 INFO dfs.FSNamesystem: BLOCK* NameSystem.delete: blk_-6978845808078082463 is added to invalidSet of 10.251.109.209:50010
081111 023027 27 INFO dfs.FSNamesystem: BLOCK* NameSystem.delete: blk_-2225353020301959077 is added to invalidSet of 10.251.125.237:50010
081111 023149 19 INFO dfs.FSDataset: Deleting block blk_-7411858598798393933 file /mnt/hadoop/dfs/data/current/subdir24/blk_-7411858598798393933
081111 023230 19 INFO dfs.FSDataset: Deleting block blk_-3607708283707030582 file /mnt/hadoop/dfs/data/current/subdir31/blk_-3607708283707030582
081111 023248 19 INFO dfs.FSDataset: Deleting block blk_6675564098604634452 file /mnt/hadoop/dfs/data/current/subdir1/blk_6675564098604634452
081111 023328 19 INFO dfs.FSDataset: Deleting block blk_9014154925388243050 file /mnt/hadoop/dfs/data/current/subdir28/blk_9014154925388243050
081111 024304 27 INFO dfs.FSNamesystem: BLOCK* NameSystem.addStoredBlock: blockMap updated: 10.250.7.146:50010 is added to blk_9163807899833139121 size 67108864
081111 024831 35 INFO dfs.FSNamesystem: BLOCK* NameSystem.addStoredBlock: blockMap updated: 10.251.31.242:50010 is added to blk_5390763359901143305 size 67108864
081111 025336 18090 INFO dfs.DataNode$DataXceiver: Receiving block blk_-764747190320632607 src: /10.251.127.191:49914 dest: /10.251.127.191:50010
081111 025732 18087 INFO dfs.DataNode$DataXceiver: Receiving block blk_-3752135158991310104 src: /10.251.70.5:44375 dest: /10.251.70.5:50010
081111 030051 35 INFO dfs.FSNamesystem: BLOCK* NameSystem.addStoredBlock: blockMap updated: 10.251.30.179:50010 is added to blk_-900758580041645081 size 3543900
081111 030318 18190 INFO dfs.DataNode$DataXceiver: Receiving block blk_3181161977343808286 src: /10.251.43.21:40127 dest: /10.251.43.21:50010
081111 030745 18290 INFO dfs.DataNode$DataXceiver: Receiving block blk_7780461223860192433 src: /10.251.127.191:58148 dest: /10.251.127.191:50010
081111 031257 18567 INFO dfs.DataNode$DataXceiver: Receiving block blk_-6380328072112550668 src: /10.250.6.191:37701 dest: /10.250.6.191:50010
081111 031650 18225 INFO dfs.DataNode$PacketResponder: Received block blk_3777399812922072863 of size 67108864 from /10.251.199.225
081111 032053 27 INFO dfs.FSNamesystem: BLOCK* NameSystem.allocateBlock: /user/root/rand4/_temporary/_task_200811101024_0009_m_001611_0/part-01611. blk_285336326661214154
081111 032655 18710 INFO dfs.DataNode$PacketResponder: Received block blk_-2243784245784480521 of size 67108864 from /10.250.6.191
081111 033125 18859 INFO dfs.DataNode$PacketResponder: PacketResponder 1 for block blk_8229768485681546149 terminating
081111 033824 28 INFO dfs.FSNamesystem: BLOCK* NameSystem.delete: blk_-6802124772693111025 is added to invalidSet of 10.251.66.63:50010
081111 034252 33 INFO dfs.FSNamesystem: BLOCK* NameSystem.allocateBlock: /user/root/randtxt4/_temporary/_task_200811101024_0010_m_000222_0/part-00222. blk_3764836840384130740
081111 034742 19142 INFO dfs.DataNode$PacketResponder: Received block blk_752365829198406123 of size 67108864 from /10.250.6.214
081111 035247 19144 INFO dfs.DataNode$PacketResponder: PacketResponder 1 for block blk_-2780312306380730204 terminating
081111 035948 19511 INFO dfs.DataNode$PacketResponder: PacketResponder 1 for block blk_-2421414377433740760 terminating
081111 040425 19408 INFO dfs.DataNode$DataXceiver: Receiving block blk_-5646228903161999640 src: /10.251.71.97:60870 dest: /10.251.71.97:50010
081111 040653 26 INFO dfs.FSNamesystem: BLOCK* NameSystem.addStoredBlock: blockMap updated: 10.251.42.16:50010 is added to blk_3954386352306480748 size 67108864
081111 041039 33 INFO dfs.FSNamesystem: BLOCK* NameSystem.addStoredBlock: blockMap updated: 10.251.39.242:50010 is added to blk_6640583412927022083 size 67108864
081111 041443 19498 INFO dfs.DataNode$PacketResponder: PacketResponder 0 for block blk_-1842096107468319932 terminating
081111 041926 19700 INFO dfs.DataNode$DataXceiver: Receiving block blk_-5144503768267321004 src: /10.251.107.19:36862 dest: /10.251.107.19:50010
081111 042416 19265 INFO dfs.DataNode$DataXceiver: Receiving block blk_4284688617983009262 src: /10.251.91.32:57548 dest: /10.251.91.32:50010
081111 043015 19875 INFO dfs.DataNode$PacketResponder: PacketResponder 2 for block blk_-3363550789841756902 terminating
081111 043358 27 INFO dfs.FSNamesystem: BLOCK* NameSystem.addStoredBlock: blockMap updated: 10.251.111.37:50010 is added to blk_-524128780228307052 size 67108864
081111 044304 35 INFO dfs.FSNamesystem: BLOCK* NameSystem.delete: blk_2259206517962925438 is added to invalidSet of 10.251.215.16:50010
081111 044315 35 INFO dfs.FSNamesystem: BLOCK* NameSystem.delete: blk_3539852484771802299 is added to invalidSet of 10.250.19.227:50010
081111 044331 29 INFO dfs.FSNamesystem: BLOCK* NameSystem.delete: blk_-3242342105286997235 is added to invalidSet of 10.251.71.97:50010
081111 044343 29 INFO dfs.FSNamesystem: BLOCK* NameSystem.delete: blk_6413710007211667486 is added to invalidSet of 10.251.30.179:50010
081111 044522 18 INFO dfs.FSDataset: Deleting block blk_-8167717961644709843 file /mnt/hadoop/dfs/data/current/blk_-8167717961644709843
081111 044612 19 INFO dfs.FSDataset: Deleting block blk_-6350492516478706425 file /mnt/hadoop/dfs/data/current/subdir36/blk_-6350492516478706425
081111 044650 19 INFO dfs.FSDataset: Deleting block blk_-4844505495441326897 file /mnt/hadoop/dfs/data/current/subdir36/blk_-4844505495441326897
081111 044720 19 INFO dfs.FSDataset: Deleting block blk_-2890295200276774269 file /mnt/hadoop/dfs/data/current/subdir29/blk_-2890295200276774269
081111 044759 19 INFO dfs.FSDataset: Deleting block blk_3274968259628929519 file /mnt/hadoop/dfs/data/current/subdir19/blk_3274968259628929519
081111 044913 18 INFO dfs.FSDataset: Deleting block blk_8962411947457130719 file /mnt/hadoop/dfs/data/current/subdir16/blk_8962411947457130719
081111 045614 20587 INFO dfs.DataNode$DataXceiver: Receiving block blk_9131004320470011870 src: /10.251.123.132:52815 dest: /10.251.123.132:50010
081111 045904 20552 INFO dfs.DataNode$PacketResponder: PacketResponder 2 for block blk_-8225435781013159573 terminating
081111 050346 27 INFO dfs.FSNamesystem: BLOCK* NameSystem.addStoredBlock: blockMap updated: 10.251.90.64:50010 is added to blk_-8923923031063738809 size 67108864
081111 051128 20647 INFO dfs.DataNode$PacketResponder: Received block blk_-2935178173527646581 of size 67108864 from /10.251.65.237
081111 051555 27 INFO dfs.FSNamesystem: BLOCK* NameSystem.addStoredBlock: blockMap updated: 10.251.42.16:50010 is added to blk_-3253005280055520211 size 67108864
081111 052348 31 INFO dfs.FSNamesystem: BLOCK* NameSystem.addStoredBlock: blockMap updated: 10.251.90.239:50010 is added to blk_-2281067667503210140 size 67108864
081111 052846 21358 INFO dfs.DataNode$PacketResponder: Received block blk_5348548743130215090 of size 67108864 from /10.251.39.179
081111 053347 21024 INFO dfs.DataNode$PacketResponder: Received block blk_8902425017314766082 of size 67108864 from /10.251.26.131
081111 053958 21262 INFO dfs.DataNode$DataXceiver: Receiving block blk_8087142318511408355 src: /10.250.15.67:55334 dest: /10.250.15.67:50010
081111 054443 21162 INFO dfs.DataNode$PacketResponder: PacketResponder 0 for block blk_-1096621677333075077 terminating
081111 055219 33 INFO dfs.FSNamesystem: BLOCK* NameSystem.addStoredBlock: blockMap updated: 10.251.67.4:50010 is added to blk_9093176996492793041 size 67108864
081111 060104 21535 INFO dfs.DataNode$PacketResponder: PacketResponder 2 for block blk_6123232805286187512 terminating
081111 061534 21779 INFO dfs.DataNode$PacketResponder: PacketResponder 2 for block blk_-615578808743808725 terminating
081111 061857 17075 INFO dfs.DataNode$PacketResponder: Received block blk_3961831045048378097 of size 67108864 from /10.251.39.160
081111 062038 34 INFO dfs.FSNamesystem: BLOCK* NameSystem.addStoredBlock: blockMap updated: 10.251.215.50:50010 is added to blk_6675543598756975559 size 67108864
081111 062905 21843 INFO dfs.DataNode$PacketResponder: Received block blk_3049351456771045311 of size 67108864 from /10.251.199.159
081111 063305 30 INFO dfs.FSNamesystem: BLOCK* NameSystem.addStoredBlock: blockMap updated: 10.251.214.67:50010 is added to blk_-5961895238114806886 size 28508403
081111 063514 35 INFO dfs.FSNamesystem: BLOCK* NameSystem.allocateBlock: /user/root/randtxt5/_temporary/_task_200811101024_0012_m_001709_0/part-01709. blk_3776895047834644694
081111 064209 22299 INFO dfs.DataNode$PacketResponder: PacketResponder 2 for block blk_-7256345477493725857 terminating
081111 064823 22556 INFO dfs.DataNode$DataXceiver: Receiving block blk_-4657886075935807358 src: /10.251.31.160:53084 dest: /10.251.31.160:50010
081111 065217 26 INFO dfs.FSNamesystem: BLOCK* NameSystem.delete: blk_-1641081065757890722 is added to invalidSet of 10.251.107.242:50010
081111 065225 26 INFO dfs.FSNamesystem: BLOCK* NameSystem.delete: blk_-719470845056640928 is added to invalidSet of 10.251.90.64:50010
081111 065258 19 INFO dfs.FSDataset: Deleting block blk_-9169228974826183399 file /mnt/hadoop/dfs/data/current/subdir5/blk_-9169228974826183399
081111 065423 19 INFO dfs.FSDataset: Deleting block blk_2107487634698646045 file /mnt/hadoop/dfs/data/current/subdir3/blk_2107487634698646045
081111 065444 19 INFO dfs.FSDataset: Deleting block blk_1213582438865696738 file /mnt/hadoop/dfs/data/current/subdir56/blk_1213582438865696738
081111 065511 19 INFO dfs.FSDataset: Deleting block blk_6943254721518837570 file /mnt/hadoop/dfs/data/current/subdir41/blk_6943254721518837570
081111 065803 33 INFO dfs.FSNamesystem: BLOCK* NameSystem.addStoredBlock: blockMap updated: 10.251.214.67:50010 is added to blk_-8483420270408348004 size 67108864
081111 070232 13 INFO dfs.DataBlockScanner: Verification succeeded for blk_-8050165297538775793
081111 070519 22971 INFO dfs.DataNode$PacketResponder: PacketResponder 0 for block blk_-4684475480143348818 terminating
081111 070912 22946 INFO dfs.DataNode$PacketResponder: Received block blk_1561008813520212225 of size 67108864 from /10.250.7.230
081111 071112 34 INFO dfs.FSNamesystem: BLOCK* NameSystem.allocateBlock: /user/root/rand6/_temporary/_task_200811101024_0013_m_000523_0/part-00523. blk_-4801855948459616884
081111 071746 30 INFO dfs.FSNamesystem: BLOCK* NameSystem.addStoredBlock: blockMap updated: 10.251.71.16:50010 is added to blk_-6464763289185102366 size 67108864
081111 072224 23062 INFO dfs.DataNode$PacketResponder: PacketResponder 2 for block blk_-5504500392858491441 terminating
081111 072523 30 INFO dfs.FSNamesystem: BLOCK* NameSystem.addStoredBlock: blockMap updated: 10.251.27.63:50010 is added to blk_-7794786562417612249 size 67108864
081111 072921 29 INFO dfs.FSNamesystem: BLOCK* NameSystem.addStoredBlock: blockMap updated: 10.251.107.242:50010 is added to blk_621685330749869453 size 67108864
081111 073109 23004 INFO dfs.DataNode$PacketResponder: PacketResponder 2 for block blk_-8246207776580662770 terminating
081111 073406 23140 INFO dfs.DataNode$PacketResponder: Received block blk_-8310554294841246175 of size 67108864 from /10.251.123.132
081111 073802 23624 INFO dfs.DataNode$PacketResponder: PacketResponder 1 for block blk_7078766226078740026 terminating
081111 074409 23194 INFO dfs.DataNode$DataXceiver: Receiving block blk_6417614801998326532 src: /10.251.214.67:48694 dest: /10.251.214.67:50010
081111 074958 29 INFO dfs.FSNamesystem: BLOCK* NameSystem.allocateBlock: /user/root/rand6/_temporary/_task_200811101024_0013_m_001983_0/part-01983. blk_8861349372992394289
081111 075317 23851 INFO dfs.DataNode$DataXceiver: Receiving block blk_7713504868233504097 src: /10.251.127.191:36437 dest: /10.251.127.191:50010
081111 075626 28 INFO dfs.FSNamesystem: BLOCK* NameSystem.delete: blk_805187982300776163 is added to invalidSet of 10.251.73.188:50010
081111 075637 28 INFO dfs.FSNamesystem: BLOCK* NameSystem.delete: blk_5018797996887008111 is added to invalidSet of 10.251.89.155:50010
081111 075747 23844 INFO dfs.DataNode$DataXceiver: Receiving block blk_706826531153199550 src: /10.250.5.161:58254 dest: /10.250.5.161:50010
081111 075824 19 INFO dfs.FSDataset: Deleting block blk_-3575718350717794894 file /mnt/hadoop/dfs/data/current/blk_-3575718350717794894
081111 075902 19 INFO dfs.FSDataset: Deleting block blk_-1800458850981311953 file /mnt/hadoop/dfs/data/current/subdir57/blk_-1800458850981311953
081111 075920 19 INFO dfs.FSDataset: Deleting block blk_5453150794205420798 file /mnt/hadoop/dfs/data/current/subdir24/blk_5453150794205420798
081111 080151 19 INFO dfs.FSDataset: Deleting block blk_8384967715738359346 file /mnt/hadoop/dfs/data/current/subdir27/blk_8384967715738359346
081111 080654 23600 INFO dfs.DataNode$PacketResponder: PacketResponder 0 for block blk_-7587189852169913514 terminating
081111 081145 23823 INFO dfs.DataNode$DataXceiver: Receiving block blk_-7227576651324043655 src: /10.251.107.227:40740 dest: /10.251.107.227:50010
081111 081702 24075 INFO dfs.DataNode$PacketResponder: Received block blk_-7630699912570186723 of size 67108864 from /10.251.71.240
081111 082322 24292 INFO dfs.DataNode$PacketResponder: Received block blk_-4775386099844009890 of size 67108864 from /10.251.107.19
081111 082902 24331 INFO dfs.DataNode$PacketResponder: PacketResponder 1 for block blk_3922791077126964673 terminating
081111 083219 35 INFO dfs.FSNamesystem: BLOCK* NameSystem.allocateBlock: /user/root/rand7/_temporary/_task_200811101024_0014_m_001348_0/part-01348. blk_4531288786306744275
081111 083443 24635 INFO dfs.DataNode$PacketResponder: PacketResponder 0 for block blk_-917268749136585019 terminating
081111 083955 24547 INFO dfs.DataNode$PacketResponder: Received block blk_4539833452749813987 of size 67108864 from /10.251.42.16
081111 084233 24661 INFO dfs.DataNode$PacketResponder: PacketResponder 1 for block blk_7901008236334420364 terminating
081111 084732 24650 INFO dfs.DataNode$PacketResponder: Received block blk_7864850143895703065 of size 67108864 from /10.251.107.98
081111 085059 31 INFO dfs.FSNamesystem: BLOCK* NameSystem.allocateBlock: /user/root/rand7/_temporary/_task_200811101024_0014_m_001642_0/part-01642. blk_8215843708467112607
081111 085529 24695 INFO dfs.DataNode$PacketResponder: PacketResponder 1 for block blk_-5144548163293169177 terminating
081111 085907 27 INFO dfs.FSNamesystem: BLOCK* NameSystem.delete: blk_2060553104861908174 is added to invalidSet of 10.251.201.204:50010
081111 085914 27 INFO dfs.FSNamesystem: BLOCK* NameSystem.delete: blk_-1030832046197982436 is added to invalidSet of 10.251.89.155:50010
081111 085922 27 INFO dfs.FSNamesystem: BLOCK* NameSystem.delete: blk_-7846283874350947646 is added to invalidSet of 10.251.199.150:50010
081111 090056 19 INFO dfs.FSDataset: Deleting block blk_-6177194341369822651 file /mnt/hadoop/dfs/data/current/subdir38/blk_-6177194341369822651
081111 090136 19 INFO dfs.FSDataset: Deleting block blk_-2722768686407017386 file /mnt/hadoop/dfs/data/current/subdir36/blk_-2722768686407017386
081111 090154 19 INFO dfs.FSDataset: Deleting block blk_5701964561533648583 file /mnt/hadoop/dfs/data/current/subdir10/blk_5701964561533648583
081111 090339 24904 INFO dfs.DataNode$PacketResponder: PacketResponder 2 for block blk_6791628131402590260 terminating
081111 091317 31 INFO dfs.FSNamesystem: BLOCK* NameSystem.addStoredBlock: blockMap updated: 10.250.11.100:50010 is added to blk_-1970947032352756307 size 67108864
081111 091742 19 INFO dfs.FSDataset: Deleting block blk_-2808875502459981198 file /mnt/hadoop/dfs/data/current/subdir3/blk_-2808875502459981198
081111 092425 25331 INFO dfs.DataNode$DataXceiver: Receiving block blk_4820650745157199554 src: /10.251.127.243:49726 dest: /10.251.127.243:50010
081111 092915 25283 INFO dfs.DataNode$PacketResponder: PacketResponder 1 for block blk_4565822428702518889 terminating
081111 093513 25793 INFO dfs.DataNode$DataXceiver: Receiving block blk_-5057534532247887258 src: /10.250.5.237:45766 dest: /10.250.5.237:50010
081111 093823 25642 INFO dfs.DataNode$PacketResponder: PacketResponder 2 for block blk_1259893634804870815 terminating
081111 094331 26028 INFO dfs.DataNode$PacketResponder: Received block blk_3386670145292909259 of size 67108864 from /10.251.110.68
081111 094918 25951 INFO dfs.DataNode$PacketResponder: Received block blk_-7202857144668308473 of size 67108864 from /10.251.43.21
081111 095039 35 INFO dfs.FSNamesystem: BLOCK* NameSystem.allocateBlock: /user/root/rand8/_temporary/_task_200811101024_0015_m_001860_0/part-01860. blk_8716294289715825928
081111 095636 26319 INFO dfs.DataNode$PacketResponder: PacketResponder 1 for block blk_1216611589160220108 terminating
081111 095844 30 INFO dfs.FSNamesystem: BLOCK* NameSystem.addStoredBlock: blockMap updated: 10.251.215.192:50010 is added to blk_2015610615789582788 size 67108864
081111 100350 32 INFO dfs.FSNamesystem: BLOCK* NameSystem.addStoredBlock: blockMap updated: 10.250.13.240:50010 is added to blk_2593937801738981947 size 67108864
081111 100824 26391 INFO dfs.DataNode$DataXceiver: Receiving block blk_8303284829424905326 src: /10.251.70.37:47359 dest: /10.251.70.37:50010
081111 101206 26380 INFO dfs.DataNode$PacketResponder: PacketResponder 1 for block blk_-3228470001178394592 terminating
081111 101415 26449 INFO dfs.DataNode$PacketResponder: PacketResponder 1 for block blk_-2025617675484194470 terminating
081111 102017 26347 INFO dfs.DataNode$DataXceiver: Receiving block blk_4343207286455274569 src: /10.250.9.207:59759 dest: /10.250.9.207:50010
