081109 203615 148 INFO dfs.DataNode$PacketResponder: PacketResponder 1 for block blk_38865049064139660 terminating
081109 204453 34 INFO dfs.FSNamesystem: BLOCK* NameSystem.addStoredBlock: blockMap updated: 10.250.11.85:50010 is added to blk_2377150260128098806 size 67108864
081109 204925 673 INFO dfs.DataNode$DataXceiver: Receiving block blk_-5623176793330377570 src: /10.251.75.228:53725 dest: /10.251.75.228:50010
081109 205632 28 INFO dfs.FSNamesystem: BLOCK* NameSystem.addStoredBlock: blockMap updated: 10.251.74.79:50010 is added to blk_-4794867979917102672 size 67108864
081109 205931 13 INFO dfs.DataBlockScanner: Verification succeeded for blk_-4980916519894289629
081109 210637 1283 INFO dfs.DataNode$PacketResponder: Received block blk_-7526945448667194862 of size 67108864 from /10.251.203.80
081109 210921 1452 INFO dfs.DataNode$DataXceiver: Receiving block blk_-6809181994368905854 src: /10.250.17.225:51754 dest: /10.250.17.225:50010
081109 211403 31 INFO dfs.FSNamesystem: BLOCK* NameSystem.addStoredBlock: blockMap updated: 10.251.202.134:50010 is added to blk_2113880130496815041 size 3549917
081109 212220 1946 INFO dfs.DataNode$DataXceiver: Receiving block blk_-774267833966018354 src: /10.251.38.53:51057 dest: /10.251.38.53:50010
081109 212904 2174 INFO dfs.DataNode$PacketResponder: Received block blk_8408125361497769001 of size 67108864 from /10.251.70.211
081109 213506 2421 INFO dfs.DataNode$DataXceiver: Receiving block blk_-3509323198988774369 src: /10.250.6.214:52922 dest: /10.250.6.214:50010
081109 214043 2561 WARN dfs.DataNode$DataXceiver: 10.251.30.85:50010:Got exception while serving blk_-2918118818249673980 to /10.251.90.64:
081109 215259 2934 WARN dfs.DataNode$DataXceiver: 10.250.9.207:50010:Got exception while serving blk_-3140754468249228022 to /10.250.9.207:
081109 221151 3361 WARN dfs.DataNode$DataXceiver: 10.250.10.144:50010:Got exception while serving blk_5126469776250053435 to /10.250.11.100:
081109 224054 3560 WARN dfs.DataNode$DataXceiver: 10.251.126.255:50010:Got exception while serving blk_2879780987351022871 to /10.251.39.144:
081109 232346 3820 INFO dfs.DataNode$DataXceiver: Receiving block blk_8692428775973608797 src: /10.250.10.213:56574 dest: /10.250.10.213:50010
081109 233108 3872 INFO dfs.DataNode$PacketResponder: PacketResponder 0 for block blk_-54240672253074715 terminating
081109 234107 4261 INFO dfs.DataNode$DataXceiver: Receiving block blk_-1259190292740306590 src: /10.251.65.203:36289 dest: /10.251.65.203:50010
081109 234555 4345 INFO dfs.DataNode$PacketResponder: PacketResponder 1 for block blk_8320088109701056055 terminating
081109 234835 4259 INFO dfs.DataNode$DataXceiver: Receiving block blk_7061131805920430446 src: /10.250.7.32:53397 dest: /10.250.7.32:50010
081109 235322 3968 INFO dfs.DataNode$DataXceiver: Receiving block blk_-9103764593642564543 src: /10.251.43.115:46385 dest: /10.251.43.115:50010
081109 235904 4520 INFO dfs.DataNode$DataXceiver: Receiving block blk_-522892190802801712 src: /10.251.74.134:39584 dest: /10.251.74.134:50010
081110 000238 4717 INFO dfs.DataNode$PacketResponder: PacketResponder 0 for block blk_-6500549130351529113 terminating
081110 000755 4717 INFO dfs.DataNode$DataXceiver: Receiving block blk_3962600675982666210 src: /10.251.123.195:37374 dest: /10.251.123.195:50010
081110 001745 4905 INFO dfs.DataNode$DataXceiver: Receiving block blk_-5135777574223073423 src: /10.251.65.237:48648 dest: /10.251.65.237:50010
081110 002337 13 INFO dfs.DataBlockScanner: Verification succeeded for blk_-1547954353065580372
081110 010506 5128 INFO dfs.DataNode$PacketResponder: Received block blk_8772892713521115147 of size 67108864 from /10.251.194.245
081110 010851 32 INFO dfs.FSNamesystem: BLOCK* NameSystem.addStoredBlock: blockMap updated: 10.251.199.86:50010 is added to blk_-9181958042427679309 size 67108864
081110 011237 13 INFO dfs.DataBlockScanner: Verification succeeded for blk_6996194389878584395
081110 011521 33 INFO dfs.FSNamesystem: BLOCK* NameSystem.allocateBlock: /user/root/randtxt/_temporary/_task_200811092030_0003_m_000705_0/part-00705. blk_-9162090767925303921
081110 012245 5396 INFO dfs.DataNode$PacketResponder: PacketResponder 0 for block blk_-9161369067334198861 terminating
081110 012855 5509 INFO dfs.DataNode$PacketResponder: Received block blk_-3787594914477940893 of size 67108864 from /10.251.71.16
081110 013412 30 INFO dfs.FSNamesystem: BLOCK* NameSystem.addStoredBlock: blockMap updated: 10.251.199.159:50010 is added to blk_-8558845834445970595 size 67108864
081110 013715 5706 INFO dfs.DataNode$PacketResponder: Received block blk_-3677956642639780952 of size 67108864 from /10.251.123.20
081110 014043 30 INFO dfs.FSNamesystem: BLOCK* NameSystem.addStoredBlock: blockMap updated: 10.251.203.129:50010 is added to blk_6002109944224710483 size 67108864
081110 014349 5817 INFO dfs.DataNode$PacketResponder: PacketResponder 1 for block blk_-4853183643928986291 terminating
081110 014727 29 INFO dfs.FSNamesystem: BLOCK* NameSystem.allocateBlock: /user/root/randtxt/_temporary/_task_200811092030_0003_m_001597_0/part-01597. blk_-591552904934794824
081110 015018 5852 INFO dfs.DataNode$DataXceiver: Receiving block blk_5977008528949258706 src: /10.251.214.32:43860 dest: /10.251.214.32:50010
081110 015600 28 INFO dfs.FSNamesystem: BLOCK* NameSystem.allocateBlock: /user/root/randtxt/_temporary/_task_200811092030_0003_m_001817_0/part-01817. blk_3291173852929756766
081110 015750 5956 INFO dfs.DataNode$PacketResponder: PacketResponder 0 for block blk_3338047823148530794 terminating
081110 020034 6204 INFO dfs.DataNode$DataXceiver: Receiving block blk_271142976916798281 src: /10.251.70.112:50176 dest: /10.251.70.112:50010
081110 020357 31 INFO dfs.FSNamesystem: BLOCK* NameSystem.addStoredBlock: blockMap updated: 10.250.6.4:50010 is added to blk_344934934043642744 size 67108864
081110 024834 6371 INFO dfs.DataNode$DataXceiver: 10.251.126.227:50010 Served block blk_-8306714721294235181 to /10.251.126.227
081110 042826 6827 INFO dfs.DataNode$DataXceiver: 10.251.67.4:50010 Served block blk_-2901225370888235702 to /10.251.91.84
081110 065635 7324 INFO dfs.DataNode$DataXceiver: 10.251.90.64:50010 Served block blk_-5719934513583495857 to /10.251.199.245
081110 071426 7742 INFO dfs.DataNode$DataXceiver: 10.251.42.191:50010 Served block blk_3515154079719300106 to /10.251.42.191
081110 080724 8080 INFO dfs.DataNode$DataXceiver: 10.251.74.79:50010 Served block blk_-3457731723401426942 to /10.251.74.79
081110 081337 8145 WARN dfs.DataNode$DataXceiver: 10.251.66.102:50010:Got exception while serving blk_6106884317961925960 to /10.251.66.102:
081110 082444 8172 INFO dfs.DataNode$DataXceiver: 10.251.109.209:50010 Served block blk_4848669047361069041 to /10.251.26.177
081110 083231 8530 INFO dfs.DataNode$DataXceiver: 10.250.10.176:50010 Served block blk_3797494971676497497 to /10.251.29.239
081110 091657 8720 WARN dfs.DataNode$DataXceiver: 10.251.70.211:50010:Got exception while serving blk_424255210146453297 to /10.251.203.179:
081110 093643 13 INFO dfs.DataBlockScanner: Verification succeeded for blk_9188832735514090334
081110 103027 34 INFO dfs.FSNamesystem: BLOCK* NameSystem.delete: blk_-3362838757940877177 is added to invalidSet of 10.250.5.161:50010
081110 103032 34 INFO dfs.FSNamesystem: BLOCK* NameSystem.delete: blk_2576408434603492552 is added to invalidSet of 10.251.106.37:50010
081110 103040 34 INFO dfs.FSNamesystem: BLOCK* NameSystem.delete: blk_4438674026376140804 is added to invalidSet of 10.251.106.50:50010
081110 103049 34 INFO dfs.FSNamesystem: BLOCK* NameSystem.delete: blk_6855535886504612774 is added to invalidSet of 10.251.70.211:50010
081110 103059 30 INFO dfs.FSNamesystem: BLOCK* NameSystem.delete: blk_-6114220623980201749 is added to invalidSet of 10.250.13.240:50010
081110 103112 30 INFO dfs.FSNamesystem: BLOCK* NameSystem.delete: blk_-2012430628930443984 is added to invalidSet of 10.250.11.100:50010
081110 103123 33 INFO dfs.FSNamesystem: BLOCK* NameSystem.delete: blk_-4954795063440871977 is added to invalidSet of 10.251.203.80:50010
081110 103137 30 INFO dfs.FSNamesystem: BLOCK* NameSystem.delete: blk_7932704730736035192 is added to invalidSet of 10.251.199.245:50010
081110 103147 30 INFO dfs.FSNamesystem: BLOCK* NameSystem.delete: blk_-2589662411410634043 is added to invalidSet of 10.251.42.16:50010
081110 103257 19 INFO dfs.FSDataset: Deleting block blk_-8898274302731129139 file /mnt/hadoop/dfs/data/current/subdir18/blk_-8898274302731129139
081110 103335 19 INFO dfs.FSDataset: Deleting block blk_-8848810702648406400 file /mnt/hadoop/dfs/data/current/subdir11/blk_-8848810702648406400
081110 103400 19 INFO dfs.FSDataset: Deleting block blk_-8796256534683400159 file /mnt/hadoop/dfs/data/current/subdir18/blk_-8796256534683400159
081110 103442 19 INFO dfs.FSDataset: Deleting block blk_-7096508472270520039 file /mnt/hadoop/dfs/data/current/subdir20/blk_-7096508472270520039
081110 103534 19 INFO dfs.FSDataset: Deleting block blk_-1492402439215451727 file /mnt/hadoop/dfs/data/current/subdir25/blk_-1492402439215451727
081110 103554 18 INFO dfs.FSDataset: Deleting block blk_-2445347158368483245 file /mnt/hadoop/dfs/data/current/subdir30/blk_-2445347158368483245
081110 103615 19 INFO dfs.FSDataset: Deleting block blk_-2826763604408365998 file /mnt/hadoop/dfs/data/current/subdir40/blk_-2826763604408365998
081110 103634 19 INFO dfs.FSDataset: Deleting block blk_2756799797410851893 file /mnt/hadoop/dfs/data/current/subdir24/blk_2756799797410851893
081110 103719 19 INFO dfs.FSDataset: Deleting block blk_6828263829429857572 file /mnt/hadoop/dfs/data/current/subdir26/blk_6828263829429857572
081110 103749 19 INFO dfs.FSDataset: Deleting block blk_8145984793403459836 file /mnt/hadoop/dfs/data/current/blk_8145984793403459836
081110 103827 26 INFO dfs.FSNamesystem: BLOCK* NameSystem.addStoredBlock: blockMap updated: 10.251.75.49:50010 is added to blk_-3684613761619321001 size 67108864
081110 104224 34 INFO dfs.FSNamesystem: BLOCK* NameSystem.allocateBlock: /user/root/rand/_temporary/_task_200811101024_0001_m_000346_0/part-00346. blk_-2016403519138424998
081110 104407 9110 INFO dfs.DataNode$PacketResponder: PacketResponder 2 for block blk_859668537217019080 terminating
081110 105000 19 INFO dfs.FSDataset: Deleting block blk_-1347057913082589493 file /mnt/hadoop/dfs/data/current/subdir56/blk_-1347057913082589493
081110 105512 30 INFO dfs.FSNamesystem: BLOCK* NameSystem.allocateBlock: /user/root/rand/_temporary/_task_200811101024_0001_m_000749_0/part-00749. blk_-6909607053783233975
081110 110021 9609 INFO dfs.DataNode$PacketResponder: Received block blk_7224257732880626802 of size 67108864 from /10.251.122.79
081110 110324 8497 INFO dfs.DataNode$DataXceiver: Receiving block blk_8752665860595246441 src: /10.251.70.5:44006 dest: /10.251.70.5:50010
081110 111026 9675 INFO dfs.DataNode$DataXceiver: Receiving block blk_5816171803790152026 src: /10.251.194.102:43940 dest: /10.251.194.102:50010
081110 111405 9848 INFO dfs.DataNode$PacketResponder: Received block blk_-5960135894031733009 of size 67108864 from /10.251.126.83
081110 111732 9557 INFO dfs.DataNode$PacketResponder: PacketResponder 0 for block blk_7837529475466774167 terminating
081110 112152 9621 INFO dfs.DataNode$PacketResponder: PacketResponder 0 for block blk_6610244864386894422 terminating
081110 112516 10267 INFO dfs.DataNode$DataXceiver: Receiving block blk_8235751201501175836 src: /10.250.11.194:37449 dest: /10.250.11.194:50010
081110 112807 35 INFO dfs.FSNamesystem: BLOCK* NameSystem.addStoredBlock: blockMap updated: 10.251.38.53:50010 is added to blk_3202507081359904616 size 67108864
081110 114005 10102 INFO dfs.DataNode$PacketResponder: PacketResponder 1 for block blk_4967492069970766092 terminating
081110 114315 10226 INFO dfs.DataNode$PacketResponder: Received block blk_1646909113279517647 of size 67108864 from /10.251.214.130
081110 114504 10561 INFO dfs.DataNode$DataXceiver: Receiving block blk_591323161994959677 src: /10.251.195.33:50123 dest: /10.251.195.33:50010
081110 115204 10569 INFO dfs.DataNode$DataXceiver: Receiving block blk_3067558337579347170 src: /10.250.6.191:34137 dest: /10.250.6.191:50010
081110 115737 27 INFO dfs.FSNamesystem: BLOCK* NameSystem.addStoredBlock: blockMap updated: 10.251.195.33:50010 is added to blk_512039711533506696 size 67108864
081110 120246 10414 INFO dfs.DataNode$PacketResponder: PacketResponder 1 for block blk_1279439901767890758 terminating
081110 120621 32 INFO dfs.FSNamesystem: BLOCK* NameSystem.allocateBlock: /user/root/randtxt2/_temporary/_task_200811101024_0002_m_000809_0/part-00809. blk_7550266985912909372
081110 121153 10880 INFO dfs.DataNode$PacketResponder: Received block blk_-6966935672736779591 of size 67108864 from /10.251.90.64
081110 121758 10889 INFO dfs.DataNode$PacketResponder: Received block blk_-5671206752084326639 of size 67108864 from /10.251.214.67
081110 122309 11240 INFO dfs.DataNode$PacketResponder: Received block blk_-227411387418683230 of size 67108864 from /10.251.194.213
081110 122648 11281 INFO dfs.DataNode$DataXceiver: Receiving block blk_-8852638972311349374 src: /10.251.107.227:46913 dest: /10.251.107.227:50010
081110 123114 33 INFO dfs.FSNamesystem: BLOCK* NameSystem.addStoredBlock: blockMap updated: 10.251.125.237:50010 is added to blk_4234385041723406944 size 67108864
081110 123453 27 INFO dfs.FSNamesystem: BLOCK* NameSystem.addStoredBlock: blockMap updated: 10.251.42.9:50010 is added to blk_-1435656632270396446 size 28490269
081110 124158 11529 INFO dfs.DataNode$DataXceiver: 10.250.11.53:50010 Served block blk_-743349875664670637 to /10.250.11.53
081110 130558 11608 INFO dfs.DataNode$DataXceiver: 10.251.39.192:50010 Served block blk_6338761369201338121 to /10.251.90.81
081110 133337 11768 INFO dfs.DataNode$DataXceiver: 10.250.10.100:50010 Served block blk_9216955386716663841 to /10.251.90.64
081110 135803 12201 INFO dfs.DataNode$DataXceiver: 10.251.214.18:50010 Served block blk_7297060562345904886 to /10.251.29.239
081110 143353 12141 INFO dfs.DataNode$DataXceiver: Receiving block blk_4959462704623252283 src: /10.251.125.174:44166 dest: /10.251.125.174:50010
081110 143736 12448 INFO dfs.DataNode$DataXceiver: Receiving block blk_-7355153279766988632 src: /10.251.194.245:35876 dest: /10.251.194.245:50010
081110 144201 12384 INFO dfs.DataNode$PacketResponder: Received block blk_7227035060836018780 of size 67108864 from /10.250.5.237
081110 144643 12257 INFO dfs.DataNode$PacketResponder: Received block blk_-3620767662957963389 of size 67108864 from /10.251.203.179
081110 145114 29 INFO dfs.FSNamesystem: BLOCK* NameSystem.addStoredBlock: blockMap updated: 10.251.31.242:50010 is added to blk_-5400783031085008882 size 67108864
081110 145606 30 INFO dfs.FSNamesystem: BLOCK* NameSystem.addStoredBlock: blockMap updated: 10.251.26.131:50010 is added to blk_-4174618838156947380 size 67108864
081110 150009 12830 INFO dfs.DataNode$PacketResponder: PacketResponder 2 for block blk_8285441926344578159 terminating
081110 150436 13158 INFO dfs.DataNode$DataXceiver: Receiving block blk_-8584158329012779023 src: /10.250.19.16:50122 dest: /10.250.19.16:50010
081110 150933 34 INFO dfs.FSNamesystem: BLOCK* NameSystem.addStoredBlock: blockMap updated: 10.251.203.179:50010 is added to blk_8188837227311063557 size 67108864
081110 151558 13270 INFO dfs.DataNode$PacketResponder: PacketResponder 1 for block blk_-7512746652453970810 terminating
081110 152215 32 INFO dfs.FSNamesystem: BLOCK* NameSystem.addStoredBlock: blockMap updated: 10.250.19.227:50010 is added to blk_2059389709317340334 size 67108864
081110 163007 13812 INFO dfs.DataNode$DataXceiver: 10.251.67.225:50010 Served block blk_5240632065631390212 to /10.251.67.225
081110 175426 13827 INFO dfs.DataNode$DataXceiver: 10.251.202.209:50010 Served block blk_-5086369325828333421 to /10.251.194.213
081110 192015 14269 WARN dfs.DataNode$DataXceiver: 10.250.10.223:50010:Got exception while serving blk_9095955277706686312 to /10.250.5.161:
081110 200311 14622 INFO dfs.DataNode$DataXceiver: 10.250.11.194:50010 Served block blk_8591104451552720112 to /10.250.11.194
081110 210123 28 INFO dfs.FSNamesystem: BLOCK* NameSystem.delete: blk_3652427357251545055 is added to invalidSet of 10.250.10.223:50010
081110 210127 28 INFO dfs.FSNamesystem: BLOCK* NameSystem.delete: blk_6093858391888371854 is added to invalidSet of 10.251.42.207:50010
081110 210144 28 INFO dfs.FSNamesystem: BLOCK* NameSystem.delete: blk_1302893891174665780 is added to invalidSet of 10.251.214.225:50010
081110 210149 28 INFO dfs.FSNamesystem: BLOCK* NameSystem.delete: blk_-6932221506331060207 is added to invalidSet of 10.251.74.79:50010
081110 210201 28 INFO dfs.FSNamesystem: BLOCK* NameSystem.delete: blk_-2439225174716664723 is added to invalidSet of 10.251.42.207:50010
081110 210308 19 INFO dfs.FSDataset: Deleting block blk_-7353572928777348242 file /mnt/hadoop/dfs/data/current/subdir22/blk_-7353572928777348242
081110 210403 14498 INFO dfs.DataNode$DataXceiver: Receiving block blk_7347539858784653625 src: /10.250.11.194:46600 dest: /10.250.11.194:50010
081110 210427 19 INFO dfs.FSDataset: Deleting block blk_-5603192027616633151 file /mnt/hadoop/dfs/data/current/subdir34/blk_-5603192027616633151
081110 210511 19 INFO dfs.FSDataset: Deleting block blk_-4110699195744660699 file /mnt/hadoop/dfs/data/current/subdir34/blk_-4110699195744660699
081110 210537 19 INFO dfs.FSDataset: Deleting block blk_-2210703755506918304 file /mnt/hadoop/dfs/data/current/subdir26/blk_-2210703755506918304
081110 210549 19 INFO dfs.FSDataset: Deleting block blk_6085442148007558065 file /mnt/hadoop/dfs/data/current/subdir63/blk_6085442148007558065
081110 210608 19 INFO dfs.FSDataset: Deleting block blk_6499414220139660338 file /mnt/hadoop/dfs/data/current/subdir59/blk_6499414220139660338
081110 210753 19 INFO dfs.FSDataset: Deleting block blk_3221204570666147236 file /mnt/hadoop/dfs/data/current/subdir34/blk_3221204570666147236
081110 211122 33 INFO dfs.FSNamesystem: BLOCK* NameSystem.addStoredBlock: blockMap updated: 10.251.30.6:50010 is added to blk_3585424189730250601 size 67108864
081110 211523 14688 INFO dfs.DataNode$DataXceiver: Receiving block blk_-852118157909078164 src: /10.251.30.101:57254 dest: /10.251.30.101:50010
081110 212111 14543 INFO dfs.DataNode$PacketResponder: PacketResponder 0 for block blk_165707910410871749 terminating
081110 212329 14784 INFO dfs.DataNode$DataXceiver: Receiving block blk_8473858691873523269 src: /10.250.11.53:60609 dest: /10.250.11.53:50010
081110 212851 28 INFO dfs.FSNamesystem: BLOCK* NameSystem.addStoredBlock: blockMap updated: 10.251.126.5:50010 is added to blk_-989798817617753264 size 67108864
081110 213423 14805 INFO dfs.DataNode$PacketResponder: Received block blk_6323743466920239525 of size 67108864 from /10.250.15.67
081110 213833 15315 INFO dfs.DataNode$PacketResponder: PacketResponder 2 for block blk_-6773301007994789531 terminating
081110 214321 15339 INFO dfs.DataNode$PacketResponder: PacketResponder 2 for block blk_-736188013503336717 terminating
081110 215057 15637 INFO dfs.DataNode$PacketResponder: Received block blk_7851643274522055587 of size 67108864 from /10.251.214.112
081110 215546 15564 INFO dfs.DataNode$DataXceiver: Receiving block blk_6556854018013706836 src: /10.251.202.134:48721 dest: /10.251.202.134:50010
081110 215813 15758 INFO dfs.DataNode$PacketResponder: PacketResponder 2 for block blk_-5908283405801966540 terminating
081110 220314 15849 INFO dfs.DataNode$DataXceiver: Receiving block blk_-7914996925059840931 src: /10.251.91.15:59714 dest: /10.251.91.15:50010
081110 220645 32 INFO dfs.FSNamesystem: BLOCK* NameSystem.delete: blk_-1680175975862749862 is added to invalidSet of 10.250.14.38:50010
081110 220651 32 INFO dfs.FSNamesystem: BLOCK* NameSystem.delete: blk_8442157310069672329 is added to invalidSet of 10.251.39.64:50010
081110 220708 19 INFO dfs.FSDataset: Deleting block blk_-6891122177443047531 file /mnt/hadoop/dfs/data/current/subdir36/blk_-6891122177443047531
081110 220853 19 INFO dfs.FSDataset: Deleting block blk_2353918919834315845 file /mnt/hadoop/dfs/data/current/subdir35/blk_2353918919834315845
081110 220925 19 INFO dfs.FSDataset: Deleting block blk_107727140948970996 file /mnt/hadoop/dfs/data/current/subdir33/blk_107727140948970996
081110 221212 28 INFO dfs.FSNamesystem: BLOCK* NameSystem.allocateBlock: /user/root/randtxt3/_temporary/_task_200811101024_0007_m_000186_0/part-00186. blk_-6754647973871368247
081110 221943 15858 INFO dfs.DataNode$DataXceiver: Receiving block blk_4414644179961808738 src: /10.251.107.98:46161 dest: /10.251.107.98:50010
081110 222455 16220 INFO dfs.DataNode$PacketResponder: Received block blk_4294115716822011564 of size 67108864 from /10.251.43.210
081110 222946 32 INFO dfs.FSNamesystem: BLOCK* NameSystem.allocateBlock: /user/root/randtxt3/_temporary/_task_200811101024_0007_m_000585_0/part-00585. blk_8561332122820208519
081110 223140 15976 INFO dfs.DataNode$DataXceiver: Receiving block blk_8007544297333060851 src: /10.251.90.134:47340 dest: /10.251.90.134:50010
081110 223833 16297 INFO dfs.DataNode$DataXceiver: Receiving block blk_-7815259387557421424 src: /10.250.13.240:50649 dest: /10.250.13.240:50010
081110 224212 29 INFO dfs.FSNamesystem: BLOCK* NameSystem.addStoredBlock: blockMap updated: 10.251.106.50:50010 is added to blk_-2023442822091562967 size 67108864
081110 224637 16371 INFO dfs.DataNode$PacketResponder: PacketResponder 2 for block blk_6048652012880073760 terminating
081110 224938 26 INFO dfs.FSNamesystem: BLOCK* NameSystem.addStoredBlock: blockMap updated: 10.251.75.79:50010 is added to blk_-5718873743060788176 size 67108864
081110 225400 34 INFO dfs.FSNamesystem: BLOCK* NameSystem.addStoredBlock: blockMap updated: 10.251.199.225:50010 is added to blk_-7115635482536854135 size 67108864
081110 230105 13 INFO dfs.DataBlockScanner: Verification succeeded for blk_3894335463008345041
081110 230524 16637 INFO dfs.DataNode$PacketResponder: PacketResponder 2 for block blk_-9056865861421808370 terminating
081110 231236 31 INFO dfs.FSNamesystem: BLOCK* NameSystem.delete: blk_-608202790716579401 is added to invalidSet of 10.251.198.33:50010
081110 233954 17191 WARN dfs.DataNode$DataXceiver: 10.250.7.230:50010:Got exception while serving blk_-7029628814943626474 to /10.251.38.197:
081111 004657 17337 INFO dfs.DataNode$DataXceiver: 10.250.10.6:50010 Served block blk_1200136320542454615 to /10.250.10.6
081111 020752 17598 INFO dfs.DataNode$DataXceiver: 10.251.125.237:50010 Served block blk_-309134958179110212 to /10.251.125.237
081111 023013 27 INFO dfs.FSNamesystem: BLOCK* NameSystem.delete: blk_5668137923110942035 is added to invalidSet of 10.251.91.229:50010
081111 023022 27 INFO dfs.FSNamesystem: BLOCK* NameSystem.delete: blk_8493856762887493521 is added to invalidSet of 10.251.26.131:50010
081111 023037 27 INFO dfs.FSNamesystem: BLOCK* NameSystem.delete: blk_2736251498135196075 is added to invalidSet of 10.251.90.64:50010
081111 023216 19 INFO dfs.FSDataset: Deleting block blk_-2923662094689783995 file /mnt/hadoop/dfs/data/current/subdir38/blk_-2923662094689783995
081111 023243 19 INFO dfs.FSDataset: Deleting block blk_2731746367139956284 file /mnt/hadoop/dfs/data/current/subdir15/blk_2731746367139956284
081111 023250 19 INFO dfs.FSDataset: Deleting block blk_797263375273454863 file /mnt/hadoop/dfs/data/current/subdir16/blk_797263375273454863
081111 023914 17773 INFO dfs.DataNode$DataXceiver: 10.251.122.65:50010 Served block blk_2866275036574950116 to /10.250.11.53
081111 024443 17867 INFO dfs.DataNode$DataXceiver: Receiving block blk_6491424745418112176 src: /10.251.214.130:57008 dest: /10.251.214.130:50010
081111 024901 35 INFO dfs.FSNamesystem: BLOCK* NameSystem.addStoredBlock: blockMap updated: 10.251.214.18:50010 is added to blk_-747046374856916711 size 67108864
081111 025607 18122 INFO dfs.DataNode$PacketResponder: PacketResponder 2 for block blk_1155029843511109085 terminating
081111 025915 18170 INFO dfs.DataNode$PacketResponder: PacketResponder 0 for block blk_3695169334833427187 terminating
081111 030233 18516 INFO dfs.DataNode$DataXceiver: Receiving block blk_9076677650086747187 src: /10.251.35.1:52094 dest: /10.251.35.1:50010
081111 030418 29 INFO dfs.FSNamesystem: BLOCK* NameSystem.allocateBlock: /user/root/rand4/_temporary/_task_200811101024_0009_m_001061_0/part-01061. blk_-749176535135404637
081111 030950 18479 INFO dfs.DataNode$PacketResponder: Received block blk_-1141332313413855099 of size 67108864 from /10.251.89.155
081111 031334 30 INFO dfs.FSNamesystem: BLOCK* NameSystem.addStoredBlock: blockMap updated: 10.251.26.8:50010 is added to blk_-5963475042722370536 size 67108864
081111 031811 18619 INFO dfs.DataNode$PacketResponder: PacketResponder 0 for block blk_1002945451269828722 terminating
081111 032416 18576 INFO dfs.DataNode$PacketResponder: PacketResponder 0 for block blk_5018765878120211503 terminating
081111 032828 18581 INFO dfs.DataNode$PacketResponder: PacketResponder 0 for block blk_-5102453487463005287 terminating
081111 033444 18940 INFO dfs.DataNode$DataXceiver: Receiving block blk_-1690784932539647416 src: /10.251.31.180:50205 dest: /10.251.31.180:50010
081111 033927 19172 INFO dfs.DataNode$PacketResponder: Received block blk_6880728743505526406 of size 67108864 from /10.251.197.226
081111 034456 18909 INFO dfs.DataNode$PacketResponder: PacketResponder 0 for block blk_6137960563260046065 terminating
081111 035010 19149 INFO dfs.DataNode$DataXceiver: Receiving block blk_-8123824094195108685 src: /10.251.194.213:54308 dest: /10.251.194.213:50010
081111 035620 31 INFO dfs.FSNamesystem: BLOCK* NameSystem.addStoredBlock: blockMap updated: 10.251.123.1:50010 is added to blk_6308888821787547357 size 67108864
081111 040246 19412 INFO dfs.DataNode$PacketResponder: PacketResponder 2 for block blk_-4068751061953213467 terminating
081111 040543 19431 INFO dfs.DataNode$DataXceiver: Receiving block blk_-6250368566161066085 src: /10.251.31.180:42992 dest: /10.251.31.180:50010
081111 040751 19585 INFO dfs.DataNode$PacketResponder: Received block blk_-9190864897806028230 of size 67108864 from /10.251.214.130
081111 041219 19820 INFO dfs.DataNode$PacketResponder: PacketResponder 0 for block blk_4873550540813847659 terminating
081111 041534 19842 INFO dfs.DataNode$DataXceiver: Receiving block blk_-7727864185516010230 src: /10.251.43.192:36039 dest: /10.251.43.192:50010
081111 042042 19757 INFO dfs.DataNode$PacketResponder: PacketResponder 2 for block blk_2111886617384066018 terminating
081111 042457 19726 INFO dfs.DataNode$PacketResponder: PacketResponder 0 for block blk_-7778922135767840250 terminating
081111 043132 32 INFO dfs.FSNamesystem: BLOCK* NameSystem.allocateBlock: /user/root/randtxt4/_temporary/_task_200811101024_0010_m_001716_0/part-01716. blk_-2051219911597308805
081111 043746 20226 INFO dfs.DataNode$DataXceiver: Receiving block blk_2737505352081488746 src: /10.251.194.245:52516 dest: /10.251.194.245:50010
081111 044309 35 INFO dfs.FSNamesystem: BLOCK* NameSystem.delete: blk_3729730843466061623 is added to invalidSet of 10.251.27.63:50010
081111 044319 35 INFO dfs.FSNamesystem: BLOCK* NameSystem.delete: blk_-2492400942012223395 is added to invalidSet of 10.251.202.209:50010
081111 044337 13 INFO dfs.DataBlockScanner: Verification succeeded for blk_-6160667975382232149
081111 044349 29 INFO dfs.FSNamesystem: BLOCK* NameSystem.delete: blk_-7668075074035173978 is added to invalidSet of 10.251.31.5:50010
081111 044546 20347 INFO dfs.DataNode$PacketResponder: Received block blk_-3922743468150895472 of size 67108864 from /10.251.39.179
081111 044630 19 INFO dfs.FSDataset: Deleting block blk_-4311652947826112510 file /mnt/hadoop/dfs/data/current/subdir57/blk_-4311652947826112510
081111 044700 19 INFO dfs.FSDataset: Deleting block blk_-1046472716157313227 file /mnt/hadoop/dfs/data/current/subdir62/blk_-1046472716157313227
081111 044749 19766 INFO dfs.DataNode$DataXceiver: Receiving block blk_-8879979113392880065 src: /10.251.202.181:33345 dest: /10.251.202.181:50010
081111 044822 19 INFO dfs.FSDataset: Deleting block blk_8556592730481313831 file /mnt/hadoop/dfs/data/current/blk_8556592730481313831
081111 045222 20321 INFO dfs.DataNode$DataXceiver: Receiving block blk_2380775154966815858 src: /10.251.107.50:33333 dest: /10.251.107.50:50010
081111 045751 26 INFO dfs.FSNamesystem: BLOCK* NameSystem.addStoredBlock: blockMap updated: 10.251.126.22:50010 is added to blk_-8298519990603402919 size 67108864
081111 050105 20507 INFO dfs.DataNode$PacketResponder: Received block blk_3924177422736829493 of size 67108864 from /10.251.66.102
081111 050534 20462 INFO dfs.DataNode$PacketResponder: Received block blk_1411218759880637753 of size 67108864 from /10.251.123.20
081111 051331 20788 INFO dfs.DataNode$PacketResponder: PacketResponder 0 for block blk_-805262942087665153 terminating
081111 051819 20803 INFO dfs.DataNode$PacketResponder: Received block blk_-6464892000340112134 of size 67108864 from /10.250.5.161
081111 052716 20795 INFO dfs.DataNode$DataXceiver: Receiving block blk_-663653551898848389 src: /10.251.203.149:42756 dest: /10.251.203.149:50010
081111 053010 30 INFO dfs.FSNamesystem: BLOCK* NameSystem.allocateBlock: /user/root/rand5/_temporary/_task_200811101024_0011_m_001408_0/part-01408. blk_6601059760261449131
081111 053431 20804 INFO dfs.DataNode$PacketResponder: Received block blk_4989329877491629543 of size 67108864 from /10.250.15.67
081111 054135 21577 INFO dfs.DataNode$PacketResponder: Received block blk_2270593866672608129 of size 67108864 from /10.250.11.53
081111 054731 29 INFO dfs.FSNamesystem: BLOCK* NameSystem.delete: blk_3280859030919654043 is added to invalidSet of 10.251.214.130:50010
081111 055640 28 INFO dfs.FSNamesystem: BLOCK* NameSystem.addStoredBlock: blockMap updated: 10.250.7.32:50010 is added to blk_-2125743956855238111 size 67108864
081111 060510 21849 INFO dfs.DataNode$PacketResponder: PacketResponder 1 for block blk_6818232325322327288 terminating
081111 061707 21528 INFO dfs.DataNode$PacketResponder: PacketResponder 1 for block blk_-9098645110390099509 terminating
081111 061921 21913 INFO dfs.DataNode$PacketResponder: PacketResponder 1 for block blk_8854625173826438305 terminating
081111 062311 35 INFO dfs.FSNamesystem: BLOCK* NameSystem.addStoredBlock: blockMap updated: 10.251.66.102:50010 is added to blk_-1932467763723526131 size 67108864
081111 063138 27 INFO dfs.FSNamesystem: BLOCK* NameSystem.allocateBlock: /user/root/randtxt5/_temporary/_task_200811101024_0012_m_001529_0/part-01529. blk_-826920518336899809
081111 063402 33 INFO dfs.FSNamesystem: BLOCK* NameSystem.addStoredBlock: blockMap updated: 10.251.75.143:50010 is added to blk_-1379379987510648393 size 67108864
081111 063923 35 INFO dfs.FSNamesystem: BLOCK* NameSystem.addStoredBlock: blockMap updated: 10.251.203.149:50010 is added to blk_-7282356322111075290 size 67108864
081111 064603 32 INFO dfs.FSNamesystem: BLOCK* NameSystem.addStoredBlock: blockMap updated: 10.251.31.5:50010 is added to blk_-1821104627978106102 size 67108864
081111 065205 26 INFO dfs.FSNamesystem: BLOCK* NameSystem.delete: blk_5616920288053661280 is added to invalidSet of 10.251.42.9:50010
081111 065220 26 INFO dfs.FSNamesystem: BLOCK* NameSystem.delete: blk_8155177385081669900 is added to invalidSet of 10.251.197.161:50010
081111 065227 26 INFO dfs.FSNamesystem: BLOCK* NameSystem.delete: blk_3231389654886008065 is added to invalidSet of 10.251.195.52:50010
081111 065404 22999 INFO dfs.DataNode$PacketResponder: PacketResponder 1 for block blk_2016964533702776852 terminating
081111 065437 19 INFO dfs.FSDataset: Deleting block blk_3706543205492061794 file /mnt/hadoop/dfs/data/current/subdir1/blk_3706543205492061794
081111 065500 22388 INFO dfs.DataNode$PacketResponder: PacketResponder 1 for block blk_-352190670750948803 terminating
081111 065538 19 INFO dfs.FSDataset: Deleting block blk_5771906433100975293 file /mnt/hadoop/dfs/data/current/subdir37/blk_5771906433100975293
081111 065936 22801 INFO dfs.DataNode$PacketResponder: Received block blk_2247786307216183697 of size 67108864 from /10.251.67.4
081111 070301 28 INFO dfs.FSNamesystem: BLOCK* NameSystem.allocateBlock: /user/root/rand6/_temporary/_task_200811101024_0013_m_000451_0/part-00451. blk_-8744988583359134013
081111 070735 31 INFO dfs.FSNamesystem: BLOCK* NameSystem.addStoredBlock: blockMap updated: 10.251.214.130:50010 is added to blk_-4427507243535536615 size 67108864
081111 071020 22762 INFO dfs.DataNode$PacketResponder: PacketResponder 1 for block blk_6030936529326346827 terminating
081111 071510 22974 INFO dfs.DataNode$PacketResponder: Received block blk_-1846853350696018836 of size 67108864 from /10.250.15.67
081111 071939 22914 INFO dfs.DataNode$DataXceiver: Receiving block blk_-7389979618829759505 src: /10.251.127.47:58395 dest: /10.251.127.47:50010
081111 072356 23300 INFO dfs.DataNode$PacketResponder: PacketResponder 0 for block blk_707166530951154301 terminating
081111 072818 28 INFO dfs.FSNamesystem: BLOCK* NameSystem.allocateBlock: /user/root/rand6/_temporary/_task_200811101024_0013_m_001195_0/part-01195. blk_5708405953850477535
081111 072956 23082 INFO dfs.DataNode$PacketResponder: Received block blk_-6441360440068187612 of size 67108864 from /10.250.10.100
081111 073302 23438 INFO dfs.DataNode$PacketResponder: Received block blk_-7207514537719465756 of size 67108864 from /10.251.75.143
081111 073525 23203 INFO dfs.DataNode$PacketResponder: Received block blk_7194943883245628915 of size 67108864 from /10.251.71.193
081111 073949 23599 INFO dfs.DataNode$PacketResponder: Received block blk_7922331746517419368 of size 67108864 from /10.251.199.19
081111 074540 29 INFO dfs.FSNamesystem: BLOCK* NameSystem.allocateBlock: /user/root/rand6/_temporary/_task_200811101024_0013_m_001850_0/part-01850. blk_-4312777901444596370
081111 075129 23397 INFO dfs.DataNode$DataXceiver: Receiving block blk_-7460532841070848624 src: /10.250.15.67:55076 dest: /10.250.15.67:50010
081111 075537 23945 INFO dfs.DataNode$PacketResponder: PacketResponder 0 for block blk_283922378823540530 terminating
081111 075631 28 INFO dfs.FSNamesystem: BLOCK* NameSystem.delete: blk_-4681205519208992498 is added to invalidSet of 10.250.6.191:50010
081111 075657 23748 INFO dfs.DataNode$DataXceiver: Receiving block blk_7996616083434301906 src: /10.251.123.195:53947 dest: /10.251.123.195:50010
081111 075809 19 INFO dfs.FSDataset: Deleting block blk_-6292499669518281202 file /mnt/hadoop/dfs/data/current/subdir26/blk_-6292499669518281202
081111 075844 18 INFO dfs.FSDataset: Deleting block blk_-1693418636466747515 file /mnt/hadoop/dfs/data/current/subdir16/blk_-1693418636466747515
081111 075911 19 INFO dfs.FSDataset: Deleting block blk_4513772639980123655 file /mnt/hadoop/dfs/data/current/blk_4513772639980123655
081111 080006 19 INFO dfs.FSDataset: Deleting block blk_7583807825342916938 file /mnt/hadoop/dfs/data/current/subdir13/blk_7583807825342916938
081111 080329 30 INFO dfs.FSNamesystem: BLOCK* NameSystem.addStoredBlock: blockMap updated: 10.251.107.196:50010 is added to blk_-2843780069100181052 size 67108864
081111 080934 19 INFO dfs.FSNamesystem: BLOCK* ask 10.250.14.38:50010 to replicate blk_-7571492020523929240 to datanode(s) 10.251.122.38:50010
081111 081534 34 INFO dfs.FSNamesystem: BLOCK* NameSystem.addStoredBlock: blockMap updated: 10.251.110.160:50010 is added to blk_-2852294661215451806 size 67108864
081111 081954 24553 INFO dfs.DataNode$PacketResponder: PacketResponder 2 for block blk_8487226415276391460 terminating
081111 082541 24284 INFO dfs.DataNode$PacketResponder: PacketResponder 2 for block blk_3433046099598424314 terminating
081111 083120 26 INFO dfs.FSNamesystem: BLOCK* NameSystem.addStoredBlock: blockMap updated: 10.251.39.192:50010 is added to blk_-3888538223380979891 size 67108864
081111 083418 24490 INFO dfs.DataNode$PacketResponder: PacketResponder 1 for block blk_-808401720390253471 terminating
081111 083753 24539 INFO dfs.DataNode$PacketResponder: PacketResponder 1 for block blk_-5263787695149681326 terminating
081111 084148 34 INFO dfs.FSNamesystem: BLOCK* NameSystem.addStoredBlock: blockMap updated: 10.250.11.100:50010 is added to blk_-4595094649363595358 size 67108864
081111 084423 24772 INFO dfs.DataNode$PacketResponder: PacketResponder 2 for block blk_215466486430758887 terminating
081111 084818 25055 INFO dfs.DataNode$PacketResponder: Received block blk_4031738712701565209 of size 67108864 from /10.251.199.150
081111 085351 24958 INFO dfs.DataNode$DataXceiver: Receiving block blk_3808164640986377400 src: /10.251.75.79:36685 dest: /10.251.75.79:50010
081111 085634 30 INFO dfs.FSNamesystem: BLOCK* NameSystem.allocateBlock: /user/root/rand7/_temporary/_task_200811101024_0014_m_002007_0/part-02007. blk_7908524857056299716
081111 085911 27 INFO dfs.FSNamesystem: BLOCK* NameSystem.delete: blk_-8769398708439834546 is added to invalidSet of 10.251.127.243:50010
081111 085916 27 INFO dfs.FSNamesystem: BLOCK* NameSystem.delete: blk_-6261136177206340449 is added to invalidSet of 10.251.70.37:50010
081111 085929 27 INFO dfs.FSNamesystem: BLOCK* NameSystem.delete: blk_4516306414837452219 is added to invalidSet of 10.251.127.47:50010
081111 090118 19 INFO dfs.FSDataset: Deleting block blk_-5344266425789048231 file /mnt/hadoop/dfs/data/current/subdir47/blk_-5344266425789048231
081111 090140 18 INFO dfs.FSDataset: Deleting block blk_-4301178988618507084 file /mnt/hadoop/dfs/data/current/subdir46/blk_-4301178988618507084
081111 090208 19 INFO dfs.FSDataset: Deleting block blk_6051144263842600010 file /mnt/hadoop/dfs/data/current/subdir42/blk_6051144263842600010
081111 091002 25162 INFO dfs.DataNode$PacketResponder: Received block blk_6000837850922531821 of size 67108864 from /10.251.197.226
081111 091555 25051 INFO dfs.DataNode$DataXceiver: Receiving block blk_2583600095045026513 src: /10.250.15.67:59629 dest: /10.250.15.67:50010
081111 092023 25367 INFO dfs.DataNode$DataXceiver: Receiving block blk_465845235850106928 src: /10.251.70.112:39499 dest: /10.251.70.112:50010
081111 092649 28 INFO dfs.FSNamesystem: BLOCK* NameSystem.allocateBlock: /user/root/rand8/_temporary/_task_200811101024_0015_m_001033_0/part-01033. blk_-8948316319329891645
081111 093316 25596 INFO dfs.DataNode$DataXceiver: Receiving block blk_-4655280636272058732 src: /10.251.26.8:48892 dest: /10.251.26.8:50010
081111 093701 24237 INFO dfs.DataNode$DataXceiver: Receiving block blk_3598226258881465924 src: /10.251.199.159:41752 dest: /10.251.199.159:50010
081111 094008 26005 INFO dfs.DataNode$DataXceiver: Receiving block blk_-7764040409370932316 src: /10.251.125.237:58496 dest: /10.251.125.237:50010
081111 094633 25926 INFO dfs.DataNode$PacketResponder: Received block blk_-5385105076403314787 of size 67108864 from /10.251.42.9
081111 094936 25537 INFO dfs.DataNode$PacketResponder: PacketResponder 1 for block blk_-1484647023667047838 terminating
081111 095434 26090 INFO dfs.DataNode$PacketResponder: Received block blk_7294821275446427348 of size 67108864 from /10.251.43.210
081111 095726 32 INFO dfs.FSNamesystem: BLOCK* NameSystem.addStoredBlock: blockMap updated: 10.251.30.134:50010 is added to blk_2749066163012162435 size 67108864
081111 100223 26181 INFO dfs.DataNode$PacketResponder: PacketResponder 1 for block blk_-191333338640084691 terminating
081111 100646 26268 INFO dfs.DataNode$DataXceiver: Receiving block blk_-7048088870427586736 src: /10.250.10.100:56512 dest: /10.250.10.100:50010
081111 101117 26526 INFO dfs.DataNode$PacketResponder: PacketResponder 2 for block blk_8418106412701718933 terminating
081111 101238 26399 INFO dfs.DataNode$DataXceiver: Receiving block blk_-5224756755359850354 src: /10.251.43.192:38028 dest: /10.251.43.192:50010
081111 101621 24902 INFO dfs.DataNode$DataXceiver: Receiving block blk_4198733391373026104 src: /10.251.106.10:46843 dest: /10.251.106.10:50010
