081109 204005 35 INFO dfs.FSNamesystem: BLOCK* NameSystem.addStoredBlock: blockMap updated: 10.251.73.220:50010 is added to blk_7128370237687728475 size 67108864
081109 204655 556 INFO dfs.DataNode$PacketResponder: Received block blk_3587508140051953248 of size 67108864 from /10.251.42.84
081109 205056 710 INFO dfs.DataNode$PacketResponder: PacketResponder 1 for block blk_5017373558217225674 terminating
081109 205742 1001 INFO dfs.DataNode$PacketResponder: Received block blk_-5861636720645142679 of size 67108864 from /10.251.70.211
081109 210037 1084 INFO dfs.DataNode$DataXceiver: Receiving block blk_-5009020203888190378 src: /10.251.199.19:52622 dest: /10.251.199.19:50010
081109 210712 1333 INFO dfs.DataNode$PacketResponder: Received block blk_-8523968015014407246 of size 67108864 from /10.251.214.225
081109 211029 31 INFO dfs.FSNamesystem: BLOCK* NameSystem.addStoredBlock: blockMap updated: 10.251.106.50:50010 is added to blk_-29548654251973735 size 67108864
081109 211528 29 INFO dfs.FSNamesystem: BLOCK* NameSystem.addStoredBlock: blockMap updated: 10.251.110.8:50010 is added to blk_-1661553043410372067 size 67108864
081109 212317 34 INFO dfs.FSNamesystem: BLOCK* NameSystem.allocateBlock: /user/root/rand/_temporary/_task_200811092030_0001_m_001866_0/part-01866. blk_-1282453782148343691
081109 213009 2207 INFO dfs.DataNode$PacketResponder: Received block blk_7577595658377008671 of size 67108864 from /10.251.71.97
081109 213837 19 INFO dfs.FSDataset: Deleting block blk_1781953582842324563 file /mnt/hadoop/dfs/data/current/subdir5/blk_1781953582842324563
081109 214524 2633 INFO dfs.DataNode$DataXceiver: 10.251.71.68:50010 Served block blk_-2794533871450434534 to /10.251.199.150
081109 215734 3055 INFO dfs.DataNode$DataXceiver: 10.250.6.214:50010 Served block blk_5739119717322549945 to /10.251.43.115
081109 222041 3390 WARN dfs.DataNode$DataXceiver: 10.251.67.113:50010:Got exception while serving blk_-62891505109755100 to /10.250.7.96:
081109 224420 3666 WARN dfs.DataNode$DataXceiver: 10.251.73.188:50010:Got exception while serving blk_7517964792804498202 to /10.250.6.191:
081109 232828 3875 INFO dfs.DataNode$PacketResponder: Received block blk_-5195432543794777448 of size 67108864 from /10.250.10.6
081109 233753 3950 INFO dfs.DataNode$DataXceiver: Receiving block blk_-6412155847905320411 src: /10.251.30.85:58995 dest: /10.251.30.85:50010
081109 234111 4288 INFO dfs.DataNode$PacketResponder: PacketResponder 1 for block blk_2028803850179311599 terminating
081109 234644 4177 INFO dfs.DataNode$PacketResponder: Received block blk_-4330512786228504138 of size 67108864 from /10.251.67.225
081109 235030 31 INFO dfs.FSNamesystem: BLOCK* NameSystem.addStoredBlock: blockMap updated: 10.250.7.244:50010 is added to blk_-6956067134432991406 size 67108864
081109 235426 4327 INFO dfs.DataNode$PacketResponder: Received block blk_-562725280853087685 of size 67108864 from /10.251.91.84
081109 235951 4525 INFO dfs.DataNode$DataXceiver: Receiving block blk_-6329494504520216748 src: /10.251.25.237:39332 dest: /10.251.25.237:50010
081110 000507 4619 INFO dfs.DataNode$PacketResponder: PacketResponder 2 for block blk_-2896670847306153652 terminating
081110 000841 4727 INFO dfs.DataNode$PacketResponder: PacketResponder 2 for block blk_-7553009628768897700 terminating
081110 002041 4863 INFO dfs.DataNode$PacketResponder: PacketResponder 1 for block blk_9074030793567748915 terminating
081110 003441 4986 INFO dfs.DataNode$DataXceiver: Receiving block blk_-2015110815660478655 src: /10.251.35.1:53344 dest: /10.251.35.1:50010
081110 010543 35 INFO dfs.FSNamesystem: BLOCK* NameSystem.allocateBlock: /user/root/randtxt/_temporary/_task_200811092030_0003_m_000382_0/part-00382. blk_8935202950442998446
081110 010918 32 INFO dfs.FSNamesystem: BLOCK* NameSystem.addStoredBlock: blockMap updated: 10.251.106.37:50010 is added to blk_-4741127506068309449 size 67108864
081110 011352 5321 INFO dfs.DataNode$PacketResponder: PacketResponder 1 for block blk_8060713381303305129 terminating
081110 011713 5420 INFO dfs.DataNode$DataXceiver: Receiving block blk_4238127626194855481 src: /10.250.11.100:59324 dest: /10.250.11.100:50010
081110 012357 5523 INFO dfs.DataNode$PacketResponder: Received block blk_6534693994677948144 of size 67108864 from /10.251.201.204
081110 013125 27 INFO dfs.FSNamesystem: BLOCK* NameSystem.allocateBlock: /user/root/randtxt/_temporary/_task_200811092030_0003_m_001095_0/part-01095. blk_-7413910507260978729
081110 013506 5649 INFO dfs.DataNode$PacketResponder: PacketResponder 2 for block blk_-5442040196315589272 terminating
081110 013855 5764 INFO dfs.DataNode$PacketResponder: Received block blk_1498192967843651378 of size 67108864 from /10.251.42.84
081110 014138 5832 INFO dfs.DataNode$PacketResponder: PacketResponder 1 for block blk_-3802183646922512795 terminating
081110 014423 5775 INFO dfs.DataNode$PacketResponder: Received block blk_3084588477220583373 of size 67108864 from /10.251.125.174
081110 014808 28 INFO dfs.FSNamesystem: BLOCK* NameSystem.addStoredBlock: blockMap updated: 10.251.122.38:50010 is added to blk_-5404881839098659470 size 67108864
081110 015031 26 INFO dfs.FSNamesystem: BLOCK* NameSystem.addStoredBlock: blockMap updated: 10.250.11.194:50010 is added to blk_-1635752698830216319 size 67108864
081110 015626 5971 INFO dfs.DataNode$PacketResponder: PacketResponder 1 for block blk_2243777557693112935 terminating
081110 015832 34 INFO dfs.FSNamesystem: BLOCK* NameSystem.addStoredBlock: blockMap updated: 10.251.71.240:50010 is added to blk_-6330812010936261924 size 67108864
081110 020249 6148 INFO dfs.DataNode$PacketResponder: PacketResponder 0 for block blk_679168189072909208 terminating
081110 020509 6043 INFO dfs.DataNode$DataXceiver: Receiving block blk_6398122733993275620 src: /10.251.111.80:53737 dest: /10.251.111.80:50010
081110 030942 6646 WARN dfs.DataNode$DataXceiver: 10.251.31.5:50010:Got exception while serving blk_-1367876730256254709 to /10.251.67.225:
081110 050300 6683 INFO dfs.DataNode$DataXceiver: 10.251.30.134:50010 Served block blk_2039230511363331616 to /10.251.65.203
081110 070334 7327 INFO dfs.DataNode$DataXceiver: 10.251.111.37:50010 Served block blk_-6050976999174805557 to /10.251.111.37
081110 072121 7820 INFO dfs.DataNode$DataXceiver: 10.251.123.99:50010 Served block blk_5385121219895615240 to /10.251.71.146
081110 080847 8088 WARN dfs.DataNode$DataXceiver: 10.251.26.8:50010:Got exception while serving blk_-8522942048313632858 to /10.251.31.85:
081110 081643 8095 INFO dfs.DataNode$DataXceiver: 10.251.195.52:50010 Served block blk_6655622109568310643 to /10.251.195.52
081110 082706 8552 WARN dfs.DataNode$DataXceiver: 10.251.198.33:50010:Got exception while serving blk_-8495670552887053546 to /10.250.10.223:
081110 083453 13 INFO dfs.DataBlockScanner: Verification succeeded for blk_3141363517520802396
081110 092131 8815 INFO dfs.DataNode$DataXceiver: 10.251.30.179:50010 Served block blk_-2975629975082443857 to /10.251.30.179
081110 094019 8808 WARN dfs.DataNode$DataXceiver: 10.251.125.193:50010:Got exception while serving blk_3790492230047189408 to /10.251.199.159:
081110 103027 34 INFO dfs.FSNamesystem: BLOCK* NameSystem.delete: blk_8350646254685996250 is added to invalidSet of 10.251.199.159:50010
081110 103035 34 INFO dfs.FSNamesystem: BLOCK* NameSystem.delete: blk_9111860234027679206 is added to invalidSet of 10.251.39.209:50010
081110 103044 34 INFO dfs.FSNamesystem: BLOCK* NameSystem.delete: blk_-3275788837420923000 is added to invalidSet of 10.251.109.236:50010
081110 103050 34 INFO dfs.FSNamesystem: BLOCK* NameSystem.delete: blk_865453227320668516 is added to invalidSet of 10.251.71.240:50010
081110 103107 30 INFO dfs.FSNamesystem: BLOCK* NameSystem.delete: blk_-5145886774827574591 is added to invalidSet of 10.251.105.189:50010
081110 103113 30 INFO dfs.FSNamesystem: BLOCK* NameSystem.delete: blk_4499140370762613763 is added to invalidSet of 10.251.43.115:50010
081110 103130 30 INFO dfs.FSNamesystem: BLOCK* NameSystem.delete: blk_3858015337960682724 is added to invalidSet of 10.251.214.130:50010
081110 103141 30 INFO dfs.FSNamesystem: BLOCK* NameSystem.delete: blk_-5972745462629982078 is added to invalidSet of 10.251.31.5:50010
081110 103148 30 INFO dfs.FSNamesystem: BLOCK* NameSystem.delete: blk_-133919539232421451 is added to invalidSet of 10.250.10.176:50010
081110 103321 19 INFO dfs.FSDataset: Deleting block blk_-8775602795571523802 file /mnt/hadoop/dfs/data/current/subdir29/blk_-8775602795571523802
081110 103343 27 INFO dfs.FSNamesystem: BLOCK* NameSystem.allocateBlock: /user/root/rand/_temporary/_task_200811101024_0001_m_000206_0/part-00206. blk_-2230892279625104430
081110 103412 7249 INFO dfs.DataNode$PacketResponder: Received block blk_4098532420907418423 of size 67108864 from /10.251.43.147
081110 103512 19 INFO dfs.FSDataset: Deleting block blk_-3860035787700398391 file /mnt/hadoop/dfs/data/current/subdir6/blk_-3860035787700398391
081110 103547 19 INFO dfs.FSDataset: Deleting block blk_-4295805058711840933 file /mnt/hadoop/dfs/data/current/subdir0/blk_-4295805058711840933
081110 103557 19 INFO dfs.FSDataset: Deleting block blk_-8588908000680498 file /mnt/hadoop/dfs/data/current/subdir21/blk_-8588908000680498
081110 103621 19 INFO dfs.FSDataset: Deleting block blk_153508158653341141 file /mnt/hadoop/dfs/data/current/subdir50/blk_153508158653341141
081110 103655 9020 INFO dfs.DataNode$PacketResponder: Received block blk_-4935573595350235765 of size 67108864 from /10.251.123.195
081110 103731 19 INFO dfs.FSDataset: Deleting block blk_7942183449206967755 file /mnt/hadoop/dfs/data/current/subdir30/blk_7942183449206967755
081110 103801 19 INFO dfs.FSDataset: Deleting block blk_9169945668827621796 file /mnt/hadoop/dfs/data/current/subdir50/blk_9169945668827621796
081110 103840 9117 INFO dfs.DataNode$PacketResponder: PacketResponder 2 for block blk_-6991853982611346454 terminating
081110 104309 9091 INFO dfs.DataNode$DataXceiver: Receiving block blk_-4956232013010963754 src: /10.251.126.22:58984 dest: /10.251.126.22:50010
081110 104825 9232 INFO dfs.DataNode$PacketResponder: Received block blk_3083630442630693250 of size 67108864 from /10.251.215.70
081110 105203 9267 INFO dfs.DataNode$PacketResponder: PacketResponder 0 for block blk_391813102554451063 terminating
081110 105553 9531 INFO dfs.DataNode$DataXceiver: Receiving block blk_5272731391668336674 src: /10.250.6.191:46509 dest: /10.250.6.191:50010
081110 110055 26 INFO dfs.FSNamesystem: BLOCK* NameSystem.addStoredBlock: blockMap updated: 10.250.7.244:50010 is added to blk_-6582383997201802925 size 67108864
081110 110627 31 INFO dfs.FSNamesystem: BLOCK* NameSystem.addStoredBlock: blockMap updated: 10.251.194.213:50010 is added to blk_-7030770677241078854 size 67108864
081110 111043 30 INFO dfs.FSNamesystem: BLOCK* NameSystem.allocateBlock: /user/root/rand/_temporary/_task_200811101024_0001_m_001353_0/part-01353. blk_5782729236964719738
081110 111415 30 INFO dfs.FSNamesystem: BLOCK* NameSystem.addStoredBlock: blockMap updated: 10.250.13.240:50010 is added to blk_939695665085237271 size 67108864
081110 111807 29 INFO dfs.FSNamesystem: BLOCK* NameSystem.addStoredBlock: blockMap updated: 10.251.67.113:50010 is added to blk_8988793695103110546 size 67108864
081110 112234 9888 INFO dfs.DataNode$DataXceiver: Receiving block blk_6672666770563118759 src: /10.251.71.68:44457 dest: /10.251.71.68:50010
081110 112629 10027 INFO dfs.DataNode$PacketResponder: Received block blk_-3741526967786688540 of size 67108864 from /10.251.74.79
081110 113407 10381 INFO dfs.DataNode$PacketResponder: Received block blk_3242229894054064344 of size 3540106 from /10.250.15.240
081110 114020 10232 INFO dfs.DataNode$DataXceiver: Receiving block blk_1727371778357941761 src: /10.251.126.255:42844 dest: /10.251.126.255:50010
081110 114347 35 INFO dfs.FSNamesystem: BLOCK* NameSystem.addStoredBlock: blockMap updated: 10.251.214.18:50010 is added to blk_5809900021002850724 size 67108864
081110 114717 10303 INFO dfs.DataNode$PacketResponder: PacketResponder 2 for block blk_-7683667795522321323 terminating
081110 115408 10446 INFO dfs.DataNode$DataXceiver: Receiving block blk_-7230947007726948080 src: /10.251.29.239:53564 dest: /10.251.29.239:50010
081110 115804 32 INFO dfs.FSNamesystem: BLOCK* NameSystem.addStoredBlock: blockMap updated: 10.251.126.83:50010 is added to blk_5176855630425795751 size 67108864
081110 120247 10525 INFO dfs.DataNode$PacketResponder: Received block blk_469871968689793326 of size 67108864 from /10.251.30.179
081110 120807 10546 INFO dfs.DataNode$PacketResponder: Received block blk_4614530673206341566 of size 67108864 from /10.251.91.229
081110 121202 11005 INFO dfs.DataNode$PacketResponder: PacketResponder 2 for block blk_6514181997629420906 terminating
081110 121943 29 INFO dfs.FSNamesystem: BLOCK* NameSystem.allocateBlock: /user/root/randtxt2/_temporary/_task_200811101024_0002_m_001335_0/part-01335. blk_-2541428592126088938
081110 122407 11042 INFO dfs.DataNode$PacketResponder: Received block blk_692184983396207285 of size 67108864 from /10.250.6.214
081110 122717 27 INFO dfs.FSNamesystem: BLOCK* NameSystem.addStoredBlock: blockMap updated: 10.251.66.63:50010 is added to blk_-3170270010972115378 size 67108864
081110 123237 30 INFO dfs.FSNamesystem: BLOCK* NameSystem.addStoredBlock: blockMap updated: 10.250.10.100:50010 is added to blk_-8502460962248995911 size 28489733
081110 123541 11406 INFO dfs.DataNode$PacketResponder: PacketResponder 1 for block blk_-8939321760994370713 terminating
081110 124817 11533 WARN dfs.DataNode$DataXceiver: 10.251.74.79:50010:Got exception while serving blk_2139707931694085102 to /10.251.111.228:
081110 131128 11976 INFO dfs.DataNode$DataXceiver: 10.251.67.225:50010 Served block blk_2038610753592374847 to /10.250.18.114
081110 133823 11970 INFO dfs.DataNode$DataXceiver: 10.251.203.149:50010 Served block blk_-1432303681669932458 to /10.250.10.176
081110 142841 28 INFO dfs.FSNamesystem: BLOCK* NameSystem.allocateBlock: /user/root/sortrand2/_temporary/_task_200811101024_0003_r_000258_0/part-00258. blk_387577766066135394
081110 143551 12299 INFO dfs.DataNode$DataXceiver: Receiving block blk_-3261177124784025140 src: /10.251.29.239:43937 dest: /10.251.29.239:50010
081110 143945 12653 INFO dfs.DataNode$PacketResponder: Received block blk_1828089683746536118 of size 67108864 from /10.250.6.223
081110 144309 12287 INFO dfs.DataNode$PacketResponder: Received block blk_-3981735565440284420 of size 67108864 from /10.251.127.243
081110 144750 12364 INFO dfs.DataNode$DataXceiver: Receiving block blk_7193551490488433552 src: /10.251.74.227:44191 dest: /10.251.74.227:50010
081110 145203 12416 INFO dfs.DataNode$PacketResponder: PacketResponder 0 for block blk_7533949673910842243 terminating
081110 145746 12982 INFO dfs.DataNode$DataXceiver: Receiving block blk_-8915123233040672605 src: /10.250.10.176:58294 dest: /10.250.10.176:50010
081110 150205 29 INFO dfs.FSNamesystem: BLOCK* NameSystem.allocateBlock: /user/root/sortrand2/_temporary/_task_200811101024_0003_r_000116_0/part-00116. blk_6749232449432458524
081110 150531 26 INFO dfs.FSNamesystem: BLOCK* NameSystem.allocateBlock: /user/root/sortrand2/_temporary/_task_200811101024_0003_r_000315_0/part-00315. blk_-463998587096565542
081110 151202 13109 INFO dfs.DataNode$DataXceiver: Receiving block blk_7572868180557515526 src: /10.251.214.130:38983 dest: /10.251.214.130:50010
081110 151717 12949 INFO dfs.DataNode$PacketResponder: Received block blk_-265588615173040885 of size 67108864 from /10.251.215.70
081110 152613 13407 INFO dfs.DataNode$DataXceiver: Receiving block blk_1321799290531408498 src: /10.251.126.255:43447 dest: /10.251.126.255:50010
081110 163945 13711 WARN dfs.DataNode$DataXceiver: 10.251.30.101:50010:Got exception while serving blk_-5340885607150360719 to /10.251.30.101:
081110 175826 14005 INFO dfs.DataNode$DataXceiver: 10.251.215.50:50010 Served block blk_668295516093167045 to /10.251.30.6
081110 193551 14191 INFO dfs.DataNode$DataXceiver: 10.251.71.97:50010 Served block blk_6552418180158772377 to /10.251.39.242
081110 210115 28 INFO dfs.FSNamesystem: BLOCK* NameSystem.delete: blk_-4657423175636611807 is added to invalidSet of 10.251.193.175:50010
081110 210124 28 INFO dfs.FSNamesystem: BLOCK* NameSystem.delete: blk_-1342669964196815853 is added to invalidSet of 10.250.17.225:50010
081110 210129 28 INFO dfs.FSNamesystem: BLOCK* NameSystem.delete: blk_-2025578204394955498 is added to invalidSet of 10.251.91.159:50010
081110 210146 28 INFO dfs.FSNamesystem: BLOCK* NameSystem.delete: blk_4713968111267226537 is added to invalidSet of 10.251.70.5:50010
081110 210151 28 INFO dfs.FSNamesystem: BLOCK* NameSystem.delete: blk_3792448673967861371 is added to invalidSet of 10.251.89.155:50010
081110 210210 14441 INFO dfs.DataNode$DataXceiver: 10.250.15.101:50010 Served block blk_-2557432794238860908 to /10.251.74.134
081110 210339 19 INFO dfs.FSDataset: Deleting block blk_-9171803179611497035 file /mnt/hadoop/dfs/data/current/subdir35/blk_-9171803179611497035
081110 210413 19 INFO dfs.FSDataset: Deleting block blk_3733339790842827121 file /mnt/hadoop/dfs/data/current/subdir42/blk_3733339790842827121
081110 210449 19 INFO dfs.FSDataset: Deleting block blk_-4551689611865410817 file /mnt/hadoop/dfs/data/current/blk_-4551689611865410817
081110 210515 19 INFO dfs.FSDataset: Deleting block blk_-1535908830476495455 file /mnt/hadoop/dfs/data/current/subdir10/blk_-1535908830476495455
081110 210540 19 INFO dfs.FSDataset: Deleting block blk_3921292580505776296 file /mnt/hadoop/dfs/data/current/subdir57/blk_3921292580505776296
081110 210555 19 INFO dfs.FSDataset: Deleting block blk_4939101994162863442 file /mnt/hadoop/dfs/data/current/subdir24/blk_4939101994162863442
081110 210640 19 INFO dfs.FSDataset: Deleting block blk_7108974241330205218 file /mnt/hadoop/dfs/data/current/subdir22/blk_7108974241330205218
081110 210837 14418 INFO dfs.DataNode$PacketResponder: PacketResponder 1 for block blk_3940282600163903101 terminating
081110 211323 14609 INFO dfs.DataNode$PacketResponder: PacketResponder 0 for block blk_2089955821703690032 terminating
081110 211737 14817 INFO dfs.DataNode$PacketResponder: Received block blk_-185994527242886002 of size 3552954 from /10.251.39.160
081110 212221 15037 INFO dfs.DataNode$PacketResponder: PacketResponder 1 for block blk_4884219613602801814 terminating
081110 212509 34 INFO dfs.FSNamesystem: BLOCK* NameSystem.addStoredBlock: blockMap updated: 10.251.123.33:50010 is added to blk_-6442394521537090621 size 67108864
081110 213021 15065 INFO dfs.DataNode$PacketResponder: Received block blk_5602895463700536678 of size 67108864 from /10.251.30.179
081110 213448 15242 INFO dfs.DataNode$DataXceiver: Receiving block blk_-8974021306351083168 src: /10.251.91.15:40699 dest: /10.251.91.15:50010
081110 213959 15103 INFO dfs.DataNode$PacketResponder: Received block blk_-6031720401337601269 of size 67108864 from /10.250.10.100
081110 214525 35 INFO dfs.FSNamesystem: BLOCK* NameSystem.addStoredBlock: blockMap updated: 10.251.195.33:50010 is added to blk_-9049344623659872649 size 67108864
081110 215117 15436 INFO dfs.DataNode$PacketResponder: PacketResponder 2 for block blk_-966013175018359901 terminating
081110 215654 15437 INFO dfs.DataNode$DataXceiver: Receiving block blk_-2583370070230800221 src: /10.251.31.160:58714 dest: /10.251.31.160:50010
081110 220009 15450 INFO dfs.DataNode$PacketResponder: Received block blk_-8923698979247229952 of size 67108864 from /10.251.90.239
081110 220626 34 INFO dfs.FSNamesystem: BLOCK* NameSystem.delete: blk_8981795097778421111 is added to invalidSet of 10.251.194.129:50010
081110 220648 32 INFO dfs.FSNamesystem: BLOCK* NameSystem.delete: blk_-4385347171136037814 is added to invalidSet of 10.251.67.113:50010
081110 220655 32 INFO dfs.FSNamesystem: BLOCK* NameSystem.delete: blk_1481009974400305784 is added to invalidSet of 10.251.39.242:50010
081110 220749 19 INFO dfs.FSDataset: Deleting block blk_-9171930401624803515 file /mnt/hadoop/dfs/data/current/subdir56/blk_-9171930401624803515
081110 220909 19 INFO dfs.FSDataset: Deleting block blk_-1263913006422225885 file /mnt/hadoop/dfs/data/current/subdir2/blk_-1263913006422225885
081110 220955 19 INFO dfs.FSDataset: Deleting block blk_8950932638808086257 file /mnt/hadoop/dfs/data/current/subdir18/blk_8950932638808086257
081110 221343 15521 INFO dfs.DataNode$PacketResponder: Received block blk_6406847509870023726 of size 67108864 from /10.251.106.50
081110 222052 16100 INFO dfs.DataNode$PacketResponder: PacketResponder 1 for block blk_-7170175035335391571 terminating
081110 222511 16129 INFO dfs.DataNode$DataXceiver: Receiving block blk_2147212041377545584 src: /10.251.75.49:34485 dest: /10.251.75.49:50010
081110 222951 30 INFO dfs.FSNamesystem: BLOCK* NameSystem.addStoredBlock: blockMap updated: 10.251.122.38:50010 is added to blk_-5861348317118763621 size 28500222
081110 223311 16266 INFO dfs.DataNode$DataXceiver: Receiving block blk_4599950495841528213 src: /10.251.194.102:59433 dest: /10.251.194.102:50010
081110 223854 27 INFO dfs.FSNamesystem: BLOCK* NameSystem.addStoredBlock: blockMap updated: 10.251.90.239:50010 is added to blk_-5927343391895571936 size 67108864
081110 224338 31 INFO dfs.FSNamesystem: BLOCK* NameSystem.addStoredBlock: blockMap updated: 10.251.199.159:50010 is added to blk_7705518309270121951 size 67108864
081110 224732 16377 INFO dfs.DataNode$PacketResponder: PacketResponder 1 for block blk_5912213716795619450 terminating
081110 225056 16728 INFO dfs.DataNode$DataXceiver: Receiving block blk_6245594177708848366 src: /10.250.15.198:46793 dest: /10.250.15.198:50010
081110 225642 16655 INFO dfs.DataNode$PacketResponder: Received block blk_7534378757788640871 of size 67108864 from /10.251.214.130
081110 230314 16898 INFO dfs.DataNode$PacketResponder: PacketResponder 0 for block blk_157913239647511296 terminating
081110 230545 16742 INFO dfs.DataNode$PacketResponder: Received block blk_-2082401934988378573 of size 67108864 from /10.251.214.112
081110 231556 16543 INFO dfs.DataNode$DataXceiver: 10.251.202.181:50010 Served block blk_-5236655516146555545 to /10.251.31.5
081111 000037 17163 INFO dfs.DataNode$DataXceiver: 10.251.195.70:50010 Served block blk_-3696162841836791939 to /10.251.195.70
081111 012254 17517 WARN dfs.DataNode$DataXceiver: 10.250.7.32:50010:Got exception while serving blk_-1508527605812345693 to /10.251.74.192:
081111 023010 27 INFO dfs.FSNamesystem: BLOCK* NameSystem.delete: blk_-8887373200836701910 is added to invalidSet of 10.251.193.224:50010
081111 023015 27 INFO dfs.FSNamesystem: BLOCK* NameSystem.delete: blk_-5362598472846558076 is added to invalidSet of 10.250.14.143:50010
081111 023024 27 INFO dfs.FSNamesystem: BLOCK* NameSystem.delete: blk_-3225035678192156905 is added to invalidSet of 10.251.38.214:50010
081111 023039 27 INFO dfs.FSNamesystem: BLOCK* NameSystem.delete: blk_3428998332517532825 is added to invalidSet of 10.251.43.192:50010
081111 023222 17788 INFO dfs.DataNode$PacketResponder: Received block blk_3224393364314749254 of size 67108864 from /10.251.37.240
081111 023247 19 INFO dfs.FSDataset: Deleting block blk_-626413149556394155 file /mnt/hadoop/dfs/data/current/subdir26/blk_-626413149556394155
081111 023304 18 INFO dfs.FSDataset: Deleting block blk_4713539908695785630 file /mnt/hadoop/dfs/data/current/subdir39/blk_4713539908695785630
081111 024133 31 INFO dfs.FSNamesystem: BLOCK* NameSystem.addStoredBlock: blockMap updated: 10.251.199.19:50010 is added to blk_6748710057489679257 size 67108864
081111 024724 31 INFO dfs.FSNamesystem: BLOCK* NameSystem.allocateBlock: /user/root/rand4/_temporary/_task_200811101024_0009_m_000176_0/part-00176. blk_8924207394547472950
081111 025208 18218 INFO dfs.DataNode$DataXceiver: Receiving block blk_-116589515245909549 src: /10.251.203.179:33198 dest: /10.251.203.179:50010
081111 025634 28 INFO dfs.FSNamesystem: BLOCK* NameSystem.addStoredBlock: blockMap updated: 10.251.214.67:50010 is added to blk_-1417908110808566576 size 67108864
081111 030015 18180 INFO dfs.DataNode$DataXceiver: Receiving block blk_-1868325377308234190 src: /10.251.42.207:50666 dest: /10.251.42.207:50010
081111 030240 18460 INFO dfs.DataNode$PacketResponder: PacketResponder 1 for block blk_-3295982945091621137 terminating
081111 030726 18409 INFO dfs.DataNode$PacketResponder: Received block blk_-7247291679155656679 of size 67108864 from /10.250.10.176
081111 031106 18346 INFO dfs.DataNode$DataXceiver: Receiving block blk_-7678242108759603056 src: /10.251.125.193:33553 dest: /10.251.125.193:50010
081111 031541 18484 INFO dfs.DataNode$PacketResponder: Received block blk_9072486569292195232 of size 67108864 from /10.251.71.68
081111 031938 16978 INFO dfs.DataNode$PacketResponder: PacketResponder 1 for block blk_2819581679409796253 terminating
081111 032544 31 INFO dfs.FSNamesystem: BLOCK* NameSystem.addStoredBlock: blockMap updated: 10.251.109.209:50010 is added to blk_3764801892187716497 size 67108864
081111 032917 18710 INFO dfs.DataNode$PacketResponder: Received block blk_5915244038969911075 of size 67108864 from /10.250.11.53
081111 033819 33 INFO dfs.FSNamesystem: BLOCK* NameSystem.delete: blk_-1525964299678787959 is added to invalidSet of 10.251.37.240:50010
081111 033953 26 INFO dfs.FSNamesystem: BLOCK* NameSystem.addStoredBlock: blockMap updated: 10.251.26.177:50010 is added to blk_6928449948805597176 size 67108864
081111 034712 26 INFO dfs.FSNamesystem: BLOCK* NameSystem.addStoredBlock: blockMap updated: 10.251.43.192:50010 is added to blk_8249475180346179102 size 67108864
081111 035115 18830 INFO dfs.DataNode$PacketResponder: Received block blk_-290874442865281380 of size 28497700 from /10.251.203.179
081111 035913 26 INFO dfs.FSNamesystem: BLOCK* NameSystem.addStoredBlock: blockMap updated: 10.251.91.229:50010 is added to blk_-4651707530079874243 size 67108864
081111 040402 31 INFO dfs.FSNamesystem: BLOCK* NameSystem.addStoredBlock: blockMap updated: 10.251.215.70:50010 is added to blk_-420818767915591010 size 67108864
081111 040604 19555 INFO dfs.DataNode$PacketResponder: Received block blk_3813891701916249413 of size 67108864 from /10.251.121.224
081111 040857 19185 INFO dfs.DataNode$PacketResponder: PacketResponder 0 for block blk_-190773840747023361 terminating
081111 041349 26 INFO dfs.FSNamesystem: BLOCK* NameSystem.addStoredBlock: blockMap updated: 10.251.74.134:50010 is added to blk_2740792916077430444 size 28482383
081111 041734 19799 INFO dfs.DataNode$PacketResponder: PacketResponder 0 for block blk_2261089810991980611 terminating
081111 042129 32 INFO dfs.FSNamesystem: BLOCK* NameSystem.addStoredBlock: blockMap updated: 10.251.199.86:50010 is added to blk_4330492872922862223 size 67108864
081111 042735 19901 INFO dfs.DataNode$PacketResponder: Received block blk_-3607860197409267245 of size 28503188 from /10.251.31.180
081111 043222 20077 INFO dfs.DataNode$DataXceiver: Receiving block blk_-9092685890953655332 src: /10.250.15.240:43274 dest: /10.250.15.240:50010
081111 043903 20003 INFO dfs.DataNode$PacketResponder: PacketResponder 1 for block blk_-8638442557570632582 terminating
081111 044311 35 INFO dfs.FSNamesystem: BLOCK* NameSystem.delete: blk_-1227720343537039835 is added to invalidSet of 10.251.202.134:50010
081111 044328 29 INFO dfs.FSNamesystem: BLOCK* NameSystem.delete: blk_-328970571549408286 is added to invalidSet of 10.251.214.32:50010
081111 044338 29 INFO dfs.FSNamesystem: BLOCK* NameSystem.delete: blk_5203504995927133832 is added to invalidSet of 10.250.13.240:50010
081111 044353 19 INFO dfs.FSDataset: Deleting block blk_-1180596628202464893 file /mnt/hadoop/dfs/data/current/subdir52/blk_-1180596628202464893
081111 044554 19 INFO dfs.FSDataset: Deleting block blk_-8547071368131084410 file /mnt/hadoop/dfs/data/current/subdir38/blk_-8547071368131084410
081111 044639 19 INFO dfs.FSDataset: Deleting block blk_-4165176068096983220 file /mnt/hadoop/dfs/data/current/subdir34/blk_-4165176068096983220
081111 044704 19 INFO dfs.FSDataset: Deleting block blk_449049393237281194 file /mnt/hadoop/dfs/data/current/subdir18/blk_449049393237281194
081111 044757 19 INFO dfs.FSDataset: Deleting block blk_6138894560185644209 file /mnt/hadoop/dfs/data/current/subdir42/blk_6138894560185644209
081111 044847 20391 INFO dfs.DataNode$DataXceiver: Receiving block blk_-4334868513923498900 src: /10.251.91.15:35440 dest: /10.251.91.15:50010
081111 045252 20089 INFO dfs.DataNode$PacketResponder: PacketResponder 2 for block blk_-4578850505370039622 terminating
081111 045834 19263 INFO dfs.DataNode$PacketResponder: PacketResponder 0 for block blk_-4411589101766563890 terminating
081111 050313 27 INFO dfs.FSNamesystem: BLOCK* NameSystem.addStoredBlock: blockMap updated: 10.251.107.242:50010 is added to blk_-5773244829531118765 size 67108864
081111 051005 26 INFO dfs.FSNamesystem: BLOCK* NameSystem.addStoredBlock: blockMap updated: 10.251.122.79:50010 is added to blk_-3622135859810774312 size 67108864
081111 051513 20482 INFO dfs.DataNode$DataXceiver: Receiving block blk_2208589726473895860 src: /10.251.199.245:33914 dest: /10.251.199.245:50010
081111 052017 20779 INFO dfs.DataNode$PacketResponder: Received block blk_8993862241777591326 of size 67108864 from /10.250.15.240
081111 052812 21102 INFO dfs.DataNode$DataXceiver: Receiving block blk_-7228803354694123939 src: /10.251.195.70:50389 dest: /10.251.195.70:50010
081111 053245 21296 INFO dfs.DataNode$DataXceiver: Receiving block blk_-7492294065771709299 src: /10.251.203.149:41058 dest: /10.251.203.149:50010
081111 053916 21341 INFO dfs.DataNode$PacketResponder: PacketResponder 1 for block blk_-5580322334454533924 terminating
081111 054323 35 INFO dfs.FSNamesystem: BLOCK* NameSystem.addStoredBlock: blockMap updated: 10.251.30.179:50010 is added to blk_-4347054230277727863 size 67108864
081111 054914 21234 INFO dfs.DataNode$PacketResponder: Received block blk_4967370797322420259 of size 67108864 from /10.251.39.192
081111 060015 21733 INFO dfs.DataNode$PacketResponder: PacketResponder 0 for block blk_2508619583759354778 terminating
081111 061200 21837 INFO dfs.DataNode$PacketResponder: Received block blk_-4358842839092719327 of size 67108864 from /10.250.15.67
081111 061730 32 INFO dfs.FSNamesystem: BLOCK* NameSystem.allocateBlock: /user/root/randtxt5/_temporary/_task_200811101024_0012_m_000900_0/part-00900. blk_6690143611140381289
081111 062002 21694 INFO dfs.DataNode$PacketResponder: PacketResponder 2 for block blk_-8389657728641837382 terminating
081111 062628 35 INFO dfs.FSNamesystem: BLOCK* NameSystem.allocateBlock: /user/root/randtxt5/_temporary/_task_200811101024_0012_m_001314_0/part-01314. blk_5872617224009342667
081111 063244 22352 INFO dfs.DataNode$DataXceiver: Receiving block blk_2824047463816148563 src: /10.251.42.84:35776 dest: /10.251.42.84:50010
081111 063451 31 INFO dfs.FSNamesystem: BLOCK* NameSystem.allocateBlock: /user/root/randtxt5/_temporary/_task_200811101024_0012_m_001554_0/part-01554. blk_5183831565578080242
081111 064011 22583 INFO dfs.DataNode$PacketResponder: PacketResponder 2 for block blk_1077394056781488 terminating
081111 064710 22306 INFO dfs.DataNode$PacketResponder: PacketResponder 0 for block blk_-8329840785892216949 terminating
081111 065208 26 INFO dfs.FSNamesystem: BLOCK* NameSystem.delete: blk_2154193600525549460 is added to invalidSet of 10.251.43.147:50010
081111 065224 26 INFO dfs.FSNamesystem: BLOCK* NameSystem.delete: blk_2657997043417110888 is added to invalidSet of 10.250.13.240:50010
081111 065229 19 INFO dfs.FSDataset: Deleting block blk_-7423574498760490375 file /mnt/hadoop/dfs/data/current/subdir58/blk_-7423574498760490375
081111 065420 19 INFO dfs.FSDataset: Deleting block blk_-1312981516354612257 file /mnt/hadoop/dfs/data/current/subdir29/blk_-1312981516354612257
081111 065444 18 INFO dfs.FSDataset: Deleting block blk_4632283243694149854 file /mnt/hadoop/dfs/data/current/subdir40/blk_4632283243694149854
081111 065504 18 INFO dfs.FSDataset: Deleting block blk_3336810835691486095 file /mnt/hadoop/dfs/data/current/subdir11/blk_3336810835691486095
081111 065705 22525 INFO dfs.DataNode$DataXceiver: Receiving block blk_8596624696139957935 src: /10.251.214.175:41468 dest: /10.251.214.175:50010
081111 070040 22706 INFO dfs.DataNode$DataXceiver: Receiving block blk_5989505185938770383 src: /10.251.67.4:53429 dest: /10.251.67.4:50010
081111 070458 22933 INFO dfs.DataNode$PacketResponder: Received block blk_1060814796407897179 of size 67108864 from /10.251.109.209
081111 070836 22330 INFO dfs.DataNode$PacketResponder: Received block blk_-2194976790278647102 of size 67108864 from /10.251.110.8
081111 071037 21663 INFO dfs.DataNode$PacketResponder: PacketResponder 1 for block blk_-7269672042149855641 terminating
081111 071713 23240 INFO dfs.DataNode$PacketResponder: Received block blk_-1236077201457689973 of size 67108864 from /10.251.35.1
081111 072059 30 INFO dfs.FSNamesystem: BLOCK* NameSystem.addStoredBlock: blockMap updated: 10.251.30.6:50010 is added to blk_-2345355483730155757 size 67108864
081111 072403 23051 INFO dfs.DataNode$PacketResponder: PacketResponder 0 for block blk_2241654010576170013 terminating
081111 072901 34 INFO dfs.FSNamesystem: BLOCK* NameSystem.addStoredBlock: blockMap updated: 10.251.91.32:50010 is added to blk_-8127580564011467092 size 67108864
081111 073013 23372 INFO dfs.DataNode$PacketResponder: PacketResponder 1 for block blk_871974742726663441 terminating
081111 073350 31 INFO dfs.FSNamesystem: BLOCK* NameSystem.addStoredBlock: blockMap updated: 10.250.7.96:50010 is added to blk_4641147544753118391 size 67108864
081111 073704 23532 INFO dfs.DataNode$PacketResponder: Received block blk_-5450224419450631495 of size 67108864 from /10.251.42.84
081111 074200 23325 INFO dfs.DataNode$PacketResponder: PacketResponder 2 for block blk_-5722491454804415982 terminating
081111 074653 23823 INFO dfs.DataNode$PacketResponder: PacketResponder 0 for block blk_8550326614414622861 terminating
081111 075158 33 INFO dfs.FSNamesystem: BLOCK* NameSystem.allocateBlock: /user/root/rand6/_temporary/_task_200811101024_0013_m_002009_1/part-02009. blk_-7367386750462511488
081111 075619 28 INFO dfs.FSNamesystem: BLOCK* NameSystem.delete: blk_-3671953658029337449 is added to invalidSet of 10.250.14.143:50010
081111 075634 28 INFO dfs.FSNamesystem: BLOCK* NameSystem.delete: blk_4834069779372284635 is added to invalidSet of 10.251.71.97:50010
081111 075743 23596 INFO dfs.DataNode$PacketResponder: PacketResponder 0 for block blk_7625391056418655045 terminating
081111 075810 19 INFO dfs.FSDataset: Deleting block blk_-6750694665033046901 file /mnt/hadoop/dfs/data/current/subdir63/blk_-6750694665033046901
081111 075901 18 INFO dfs.FSDataset: Deleting block blk_-1345585044778938153 file /mnt/hadoop/dfs/data/current/subdir45/blk_-1345585044778938153
081111 075915 19 INFO dfs.FSDataset: Deleting block blk_7985460426680885040 file /mnt/hadoop/dfs/data/current/blk_7985460426680885040
081111 080108 24040 INFO dfs.DataNode$DataXceiver: Receiving block blk_-2250942073136893488 src: /10.251.126.22:59179 dest: /10.251.126.22:50010
081111 080554 24194 INFO dfs.DataNode$PacketResponder: Received block blk_-6502143621885580798 of size 67108864 from /10.251.39.179
081111 081029 24268 INFO dfs.DataNode$PacketResponder: Received block blk_1600228140214754078 of size 67108864 from /10.251.90.81
081111 081617 26 INFO dfs.FSNamesystem: BLOCK* NameSystem.addStoredBlock: blockMap updated: 10.250.15.240:50010 is added to blk_8512974147315737844 size 67108864
081111 082039 28 INFO dfs.FSNamesystem: BLOCK* NameSystem.addStoredBlock: blockMap updated: 10.251.66.3:50010 is added to blk_-4970213618915792510 size 67108864
081111 082730 24531 INFO dfs.DataNode$PacketResponder: Received block blk_-3023983271692989109 of size 67108864 from /10.251.110.68
081111 083148 24344 INFO dfs.DataNode$PacketResponder: PacketResponder 2 for block blk_-7319442762668598889 terminating
081111 083427 24635 INFO dfs.DataNode$DataXceiver: Receiving block blk_-7911408976820434495 src: /10.251.42.191:35834 dest: /10.251.42.191:50010
081111 083839 24534 INFO dfs.DataNode$PacketResponder: PacketResponder 2 for block blk_4786794545180705888 terminating
081111 084214 24555 INFO dfs.DataNode$PacketResponder: PacketResponder 0 for block blk_-1910608563003942187 terminating
081111 084721 33 INFO dfs.FSNamesystem: BLOCK* NameSystem.addStoredBlock: blockMap updated: 10.251.73.220:50010 is added to blk_4473390551542202999 size 67108864
081111 084842 24787 INFO dfs.DataNode$PacketResponder: Received block blk_-8789402864074203800 of size 67108864 from /10.251.193.224
081111 085432 34 INFO dfs.FSNamesystem: BLOCK* NameSystem.addStoredBlock: blockMap updated: 10.251.197.226:50010 is added to blk_-23492739449820023 size 67108864
081111 085906 27 INFO dfs.FSNamesystem: BLOCK* NameSystem.delete: blk_-3894803026385053344 is added to invalidSet of 10.251.43.21:50010
081111 085912 27 INFO dfs.FSNamesystem: BLOCK* NameSystem.delete: blk_-6068451475575444798 is added to invalidSet of 10.251.43.210:50010
081111 085917 27 INFO dfs.FSNamesystem: BLOCK* NameSystem.delete: blk_-8312238797251504127 is added to invalidSet of 10.251.89.155:50010
081111 090031 19 INFO dfs.FSDataset: Deleting block blk_-8131422413299851907 file /mnt/hadoop/dfs/data/current/subdir46/blk_-8131422413299851907
081111 090129 19 INFO dfs.FSDataset: Deleting block blk_-5598693099021996971 file /mnt/hadoop/dfs/data/current/subdir19/blk_-5598693099021996971
081111 090149 19 INFO dfs.FSDataset: Deleting block blk_-1451819169209310732 file /mnt/hadoop/dfs/data/current/subdir23/blk_-1451819169209310732
081111 090229 18 INFO dfs.FSDataset: Deleting block blk_5100975846124291571 file /mnt/hadoop/dfs/data/current/subdir38/blk_5100975846124291571
081111 091200 27 INFO dfs.FSNamesystem: BLOCK* NameSystem.allocateBlock: /user/root/rand8/_temporary/_task_200811101024_0015_m_000480_0/part-00480. blk_-5613694521084380933
081111 091728 33 INFO dfs.FSNamesystem: BLOCK* NameSystem.addStoredBlock: blockMap updated: 10.251.39.160:50010 is added to blk_-3510473878877779134 size 67108864
081111 092239 25403 INFO dfs.DataNode$PacketResponder: PacketResponder 2 for block blk_4207359722112667226 terminating
081111 092751 28 INFO dfs.FSNamesystem: BLOCK* NameSystem.allocateBlock: /user/root/rand8/_temporary/_task_200811101024_0015_m_000939_0/part-00939. blk_-3522956055443924791
081111 093407 35 INFO dfs.FSNamesystem: BLOCK* NameSystem.allocateBlock: /user/root/rand8/_temporary/_task_200811101024_0015_m_001294_0/part-01294. blk_4214952053910973364
081111 093742 13 INFO dfs.DataBlockScanner: Verification succeeded for blk_-8347949825960763812
081111 094221 25770 INFO dfs.DataNode$PacketResponder: PacketResponder 2 for block blk_2833019093942278701 terminating
081111 094825 35 INFO dfs.FSNamesystem: BLOCK* NameSystem.allocateBlock: /user/root/rand8/_temporary/_task_200811101024_0015_m_001473_0/part-01473. blk_-4390972361898978900
081111 095020 25962 INFO dfs.DataNode$DataXceiver: Receiving block blk_-8571819028995448536 src: /10.251.197.226:34801 dest: /10.251.197.226:50010
081111 095618 33 INFO dfs.FSNamesystem: BLOCK* NameSystem.addStoredBlock: blockMap updated: 10.251.126.5:50010 is added to blk_4361294871479973840 size 67108864
081111 095813 26362 INFO dfs.DataNode$PacketResponder: Received block blk_-3702595599317472079 of size 67108864 from /10.251.25.237
081111 100245 26152 INFO dfs.DataNode$PacketResponder: PacketResponder 0 for block blk_1408672604432845193 terminating
081111 100752 26527 INFO dfs.DataNode$DataXceiver: Receiving block blk_-178934379749864379 src: /10.251.71.97:55517 dest: /10.251.71.97:50010
081111 101131 26402 INFO dfs.DataNode$PacketResponder: PacketResponder 1 for block blk_-800664075087524591 terminating
081111 101316 29 INFO dfs.FSNamesystem: BLOCK* NameSystem.addStoredBlock: blockMap updated: 10.251.90.64:50010 is added to blk_1441315972355360459 size 67108864
081111 101804 26494 INFO dfs.DataNode$DataXceiver: Receiving block blk_-295306975763175640 src: /10.250.9.207:53270 dest: /10.250.9.207:50010
